
 Start         Length     Name                   Class
 0001:00401000 00008D538H _TEXT                  CODE
 0002:0048F000 0000270B8H _DATA                  DATA
 0003:004B60B8 000010C18H _BSS                   BSS
 0004:00000000 00000009CH _TLS                   TLS


Detailed map of segments
 0001:00000000 0000014F C=CODE    S=_TEXT    G=(none)   M=C:\BORLAND\BCC55\LIB\C0W32.OBJ ACBP=A9
 0001:00000150 0000004D C=CODE    S=_TEXT    G=(none)   M=C:\HELIO\SIACHB\COR.OBJ ACBP=A9
 0001:000001A0 00000010 C=CODE    S=_TEXT    G=(none)   M=C:\XHARBOUR\LIB\LANG.LIB|msgen ACBP=A9
 0001:000001B0 000015B3 C=CODE    S=_TEXT    G=(none)   M=C:\XHARBOUR\LIB\VM.LIB|arrays ACBP=A9
 0001:00001764 000034ED C=CODE    S=_TEXT    G=(none)   M=C:\XHARBOUR\LIB\VM.LIB|arrayshb ACBP=A9
 0001:00004C54 000005A0 C=CODE    S=_TEXT    G=(none)   M=C:\XHARBOUR\LIB\VM.LIB|asort ACBP=A9
 0001:000051F4 00000017 C=CODE    S=_TEXT    G=(none)   M=C:\XHARBOUR\LIB\VM.LIB|break ACBP=A9
 0001:0000520C 0000587C C=CODE    S=_TEXT    G=(none)   M=C:\XHARBOUR\LIB\VM.LIB|classes ACBP=A9
 0001:0000AA88 00000567 C=CODE    S=_TEXT    G=(none)   M=C:\XHARBOUR\LIB\VM.LIB|cmdarg ACBP=A9
 0001:0000AFF0 00000321 C=CODE    S=_TEXT    G=(none)   M=C:\XHARBOUR\LIB\VM.LIB|codebloc ACBP=A9
 0001:0000B314 0000070F C=CODE    S=_TEXT    G=(none)   M=C:\XHARBOUR\LIB\VM.LIB|dynsym ACBP=A9
 0001:0000BA24 000016B7 C=CODE    S=_TEXT    G=(none)   M=C:\XHARBOUR\LIB\VM.LIB|errorapi ACBP=A9
 0001:0000D0DC 00000846 C=CODE    S=_TEXT    G=(none)   M=C:\XHARBOUR\LIB\VM.LIB|estack ACBP=A9
 0001:0000D924 00000BD2 C=CODE    S=_TEXT    G=(none)   M=C:\XHARBOUR\LIB\VM.LIB|eval ACBP=A9
 0001:0000E4F8 00001B70 C=CODE    S=_TEXT    G=(none)   M=C:\XHARBOUR\LIB\VM.LIB|extend ACBP=A9
 0001:00010068 00000B0D C=CODE    S=_TEXT    G=(none)   M=C:\XHARBOUR\LIB\VM.LIB|fm ACBP=A9
 0001:00010B78 000006D7 C=CODE    S=_TEXT    G=(none)   M=C:\XHARBOUR\LIB\VM.LIB|garbage ACBP=A9
 0001:00011250 00002A5A C=CODE    S=_TEXT    G=(none)   M=C:\XHARBOUR\LIB\VM.LIB|hash ACBP=A9
 0001:00013CAC 00000FC9 C=CODE    S=_TEXT    G=(none)   M=C:\XHARBOUR\LIB\VM.LIB|hbi18n ACBP=A9
 0001:00014C78 0000E1FC C=CODE    S=_TEXT    G=(none)   M=C:\XHARBOUR\LIB\VM.LIB|hvm ACBP=A9
 0001:00022E74 00000006 C=CODE    S=_TEXT    G=(none)   M=C:\XHARBOUR\LIB\VM.LIB|initexit ACBP=A9
 0001:00022E7C 00000017 C=CODE    S=_TEXT    G=(none)   M=C:\XHARBOUR\LIB\VM.LIB|initsymb ACBP=A9
 0001:00022E94 00001732 C=CODE    S=_TEXT    G=(none)   M=C:\XHARBOUR\LIB\VM.LIB|itemapi ACBP=A9
 0001:000245C8 000008FF C=CODE    S=_TEXT    G=(none)   M=C:\XHARBOUR\LIB\VM.LIB|fastitem ACBP=A9
 0001:00024EC8 00001A0B C=CODE    S=_TEXT    G=(none)   M=C:\XHARBOUR\LIB\VM.LIB|macro ACBP=A9
 0001:000268D4 0000011D C=CODE    S=_TEXT    G=(none)   M=C:\XHARBOUR\LIB\VM.LIB|mainwin ACBP=A9
 0001:000269F4 00001DF1 C=CODE    S=_TEXT    G=(none)   M=C:\XHARBOUR\LIB\VM.LIB|memvars ACBP=A9
 0001:000287E8 00000039 C=CODE    S=_TEXT    G=(none)   M=C:\XHARBOUR\LIB\VM.LIB|pcount ACBP=A9
 0001:00028824 00000558 C=CODE    S=_TEXT    G=(none)   M=C:\XHARBOUR\LIB\VM.LIB|proc ACBP=A9
 0001:00028D7C 000000D5 C=CODE    S=_TEXT    G=(none)   M=C:\XHARBOUR\LIB\VM.LIB|harbinit ACBP=A9
 0001:00028E54 000001A4 C=CODE    S=_TEXT    G=(none)   M=C:\XHARBOUR\LIB\RTL.LIB|abs ACBP=A9
 0001:00028FF8 000002CD C=CODE    S=_TEXT    G=(none)   M=C:\XHARBOUR\LIB\RTL.LIB|at ACBP=A9
 0001:000292C8 00000593 C=CODE    S=_TEXT    G=(none)   M=C:\XHARBOUR\LIB\RTL.LIB|bkgtsks ACBP=A9
 0001:0002985C 0000017D C=CODE    S=_TEXT    G=(none)   M=C:\XHARBOUR\LIB\RTL.LIB|box ACBP=A9
 0001:000299DC 00000D78 C=CODE    S=_TEXT    G=(none)   M=C:\XHARBOUR\LIB\RTL.LIB|cdpapi ACBP=A9
 0001:0002A754 000000AD C=CODE    S=_TEXT    G=(none)   M=C:\XHARBOUR\LIB\RTL.LIB|chrasc ACBP=A9
 0001:0002A804 000000CD C=CODE    S=_TEXT    G=(none)   M=C:\XHARBOUR\LIB\RTL.LIB|colorind ACBP=A9
 0001:0002A8D4 00000A05 C=CODE    S=_TEXT    G=(none)   M=C:\XHARBOUR\LIB\RTL.LIB|console ACBP=A9
 0001:0002B2DC 00000159 C=CODE    S=_TEXT    G=(none)   M=C:\XHARBOUR\LIB\RTL.LIB|datec ACBP=A9
 0001:0002B438 000007EB C=CODE    S=_TEXT    G=(none)   M=C:\XHARBOUR\LIB\RTL.LIB|dates ACBP=A9
 0001:0002BC24 000006A7 C=CODE    S=_TEXT    G=(none)   M=C:\XHARBOUR\LIB\RTL.LIB|dateshb ACBP=A9
 0001:0002C2CC 00000218 C=CODE    S=_TEXT    G=(none)   M=C:\XHARBOUR\LIB\RTL.LIB|empty ACBP=A9
 0001:0002C4E4 00000138 C=CODE    S=_TEXT    G=(none)   M=C:\XHARBOUR\LIB\RTL.LIB|file ACBP=A9
 0001:0002C61C 0000009A C=CODE    S=_TEXT    G=(none)   M=C:\XHARBOUR\LIB\RTL.LIB|filehb ACBP=A9
 0001:0002C6B8 00001337 C=CODE    S=_TEXT    G=(none)   M=C:\XHARBOUR\LIB\RTL.LIB|filesys ACBP=A9
 0001:0002D9F0 000000B8 C=CODE    S=_TEXT    G=(none)   M=C:\XHARBOUR\LIB\RTL.LIB|fserror ACBP=A9
 0001:0002DAA8 00000144 C=CODE    S=_TEXT    G=(none)   M=C:\XHARBOUR\LIB\RTL.LIB|fnsplit ACBP=A9
 0001:0002DBEC 000009C8 C=CODE    S=_TEXT    G=(none)   M=C:\XHARBOUR\LIB\RTL.LIB|fparse ACBP=A9
 0001:0002E5B4 00000132 C=CODE    S=_TEXT    G=(none)   M=C:\XHARBOUR\LIB\RTL.LIB|fstemp ACBP=A9
 0001:0002E6E8 00000046 C=CODE    S=_TEXT    G=(none)   M=C:\XHARBOUR\LIB\RTL.LIB|gt ACBP=A9
 0001:0002E730 00003EE6 C=CODE    S=_TEXT    G=(none)   M=C:\XHARBOUR\LIB\RTL.LIB|gtapi ACBP=A9
 0001:00032618 000004AF C=CODE    S=_TEXT    G=(none)   M=C:\XHARBOUR\LIB\RTL.LIB|hbbitf ACBP=A9
 0001:00032AC8 00000830 C=CODE    S=_TEXT    G=(none)   M=C:\XHARBOUR\LIB\RTL.LIB|hbffind ACBP=A9
 0001:000332F8 00000407 C=CODE    S=_TEXT    G=(none)   M=C:\XHARBOUR\LIB\RTL.LIB|hbhex2n ACBP=A9
 0001:00033700 000002C0 C=CODE    S=_TEXT    G=(none)   M=C:\XHARBOUR\LIB\RTL.LIB|hbrandom ACBP=A9
 0001:000339C0 0000081F C=CODE    S=_TEXT    G=(none)   M=C:\XHARBOUR\LIB\RTL.LIB|hbserv ACBP=A9
 0001:000341E0 00000473 C=CODE    S=_TEXT    G=(none)   M=C:\XHARBOUR\LIB\RTL.LIB|idle ACBP=A9
 0001:00034654 000009CF C=CODE    S=_TEXT    G=(none)   M=C:\XHARBOUR\LIB\RTL.LIB|inkey ACBP=A9
 0001:00035024 0000043A C=CODE    S=_TEXT    G=(none)   M=C:\XHARBOUR\LIB\RTL.LIB|is ACBP=A9
 0001:00035460 00000286 C=CODE    S=_TEXT    G=(none)   M=C:\XHARBOUR\LIB\RTL.LIB|langapi ACBP=A9
 0001:000356E8 000000BD C=CODE    S=_TEXT    G=(none)   M=C:\XHARBOUR\LIB\RTL.LIB|left ACBP=A9
 0001:000357A8 00000084 C=CODE    S=_TEXT    G=(none)   M=C:\XHARBOUR\LIB\RTL.LIB|len ACBP=A9
 0001:0003582C 000009E0 C=CODE    S=_TEXT    G=(none)   M=C:\XHARBOUR\LIB\RTL.LIB|math ACBP=A9
 0001:0003620C 000000EE C=CODE    S=_TEXT    G=(none)   M=C:\XHARBOUR\LIB\RTL.LIB|maxrow ACBP=A9
 0001:000362FC 00000596 C=CODE    S=_TEXT    G=(none)   M=C:\XHARBOUR\LIB\RTL.LIB|minmax ACBP=A9
 0001:00036894 000003F5 C=CODE    S=_TEXT    G=(none)   M=C:\XHARBOUR\LIB\RTL.LIB|mouseapi ACBP=A9
 0001:00036C8C 0000018B C=CODE    S=_TEXT    G=(none)   M=C:\XHARBOUR\LIB\RTL.LIB|natmsg ACBP=A9
 0001:00036E18 00000136 C=CODE    S=_TEXT    G=(none)   M=C:\XHARBOUR\LIB\RTL.LIB|padc ACBP=A9
 0001:00036F50 00000104 C=CODE    S=_TEXT    G=(none)   M=C:\XHARBOUR\LIB\RTL.LIB|padl ACBP=A9
 0001:00037054 000000FF C=CODE    S=_TEXT    G=(none)   M=C:\XHARBOUR\LIB\RTL.LIB|padr ACBP=A9
 0001:00037154 00000BFC C=CODE    S=_TEXT    G=(none)   M=C:\XHARBOUR\LIB\RTL.LIB|philes ACBP=A9
 0001:00037D50 00005E50 C=CODE    S=_TEXT    G=(none)   M=C:\XHARBOUR\LIB\RTL.LIB|regex ACBP=A9
 0001:0003DBA0 00000140 C=CODE    S=_TEXT    G=(none)   M=C:\XHARBOUR\LIB\RTL.LIB|replic ACBP=A9
 0001:0003DCE0 00000132 C=CODE    S=_TEXT    G=(none)   M=C:\XHARBOUR\LIB\RTL.LIB|round ACBP=A9
 0001:0003DE14 000001B4 C=CODE    S=_TEXT    G=(none)   M=C:\XHARBOUR\LIB\RTL.LIB|saverest ACBP=A9
 0001:0003DFC8 00000103 C=CODE    S=_TEXT    G=(none)   M=C:\XHARBOUR\LIB\RTL.LIB|scroll ACBP=A9
 0001:0003E0CC 0000012C C=CODE    S=_TEXT    G=(none)   M=C:\XHARBOUR\LIB\RTL.LIB|seconds ACBP=A9
 0001:0003E1F8 00002B72 C=CODE    S=_TEXT    G=(none)   M=C:\XHARBOUR\LIB\RTL.LIB|set ACBP=A9
 0001:00040D6C 00000110 C=CODE    S=_TEXT    G=(none)   M=C:\XHARBOUR\LIB\RTL.LIB|setcolor ACBP=A9
 0001:00040E7C 00000063 C=CODE    S=_TEXT    G=(none)   M=C:\XHARBOUR\LIB\RTL.LIB|setcurs ACBP=A9
 0001:00040EE0 00000606 C=CODE    S=_TEXT    G=(none)   M=C:\XHARBOUR\LIB\RTL.LIB|setkey ACBP=A9
 0001:000414E8 0000008C C=CODE    S=_TEXT    G=(none)   M=C:\XHARBOUR\LIB\RTL.LIB|setpos ACBP=A9
 0001:00041574 0000002C C=CODE    S=_TEXT    G=(none)   M=C:\XHARBOUR\LIB\RTL.LIB|setposbs ACBP=A9
 0001:000415A0 00000085 C=CODE    S=_TEXT    G=(none)   M=C:\XHARBOUR\LIB\RTL.LIB|space ACBP=A9
 0001:00041628 00000224 C=CODE    S=_TEXT    G=(none)   M=C:\XHARBOUR\LIB\RTL.LIB|spfiles ACBP=A9
 0001:0004184C 0000024F C=CODE    S=_TEXT    G=(none)   M=C:\XHARBOUR\LIB\RTL.LIB|str ACBP=A9
 0001:00041A9C 000002A7 C=CODE    S=_TEXT    G=(none)   M=C:\XHARBOUR\LIB\RTL.LIB|strcase ACBP=A9
 0001:00041D44 0000013E C=CODE    S=_TEXT    G=(none)   M=C:\XHARBOUR\LIB\RTL.LIB|strdel ACBP=A9
 0001:00041E84 000000AD C=CODE    S=_TEXT    G=(none)   M=C:\XHARBOUR\LIB\RTL.LIB|strings ACBP=A9
 0001:00041F34 000002FB C=CODE    S=_TEXT    G=(none)   M=C:\XHARBOUR\LIB\RTL.LIB|strtran ACBP=A9
 0001:00042230 00000159 C=CODE    S=_TEXT    G=(none)   M=C:\XHARBOUR\LIB\RTL.LIB|stuff ACBP=A9
 0001:0004238C 00000161 C=CODE    S=_TEXT    G=(none)   M=C:\XHARBOUR\LIB\RTL.LIB|substr ACBP=A9
 0001:000424F0 00000946 C=CODE    S=_TEXT    G=(none)   M=C:\XHARBOUR\LIB\RTL.LIB|tprinter ACBP=A9
 0001:00042E38 00000140 C=CODE    S=_TEXT    G=(none)   M=C:\XHARBOUR\LIB\RTL.LIB|trace ACBP=A9
 0001:00042F78 00001594 C=CODE    S=_TEXT    G=(none)   M=C:\XHARBOUR\LIB\RTL.LIB|transfrm ACBP=A9
 0001:0004450C 000002E3 C=CODE    S=_TEXT    G=(none)   M=C:\XHARBOUR\LIB\RTL.LIB|trim ACBP=A9
 0001:000447F0 0000006D C=CODE    S=_TEXT    G=(none)   M=C:\XHARBOUR\LIB\RTL.LIB|type ACBP=A9
 0001:00044860 0000009A C=CODE    S=_TEXT    G=(none)   M=C:\XHARBOUR\LIB\RTL.LIB|val ACBP=A9
 0001:000448FC 000003A1 C=CODE    S=_TEXT    G=(none)   M=C:\XHARBOUR\LIB\RTL.LIB|valtype ACBP=A9
 0001:00044CA0 0000039F C=CODE    S=_TEXT    G=(none)   M=C:\XHARBOUR\LIB\RTL.LIB|version ACBP=A9
 0001:00045040 00000049 C=CODE    S=_TEXT    G=(none)   M=C:\XHARBOUR\LIB\RTL.LIB|word ACBP=A9
 0001:0004508C 00000080 C=CODE    S=_TEXT    G=(none)   M=C:\XHARBOUR\LIB\RTL.LIB|xhelp ACBP=A9
 0001:0004510C 000000DE C=CODE    S=_TEXT    G=(none)   M=C:\XHARBOUR\LIB\RTL.LIB|xsavescr ACBP=A9
 0001:000451EC 0000008D C=CODE    S=_TEXT    G=(none)   M=C:\XHARBOUR\LIB\RTL.LIB|alert ACBP=A9
 0001:0004527C 00000165 C=CODE    S=_TEXT    G=(none)   M=C:\XHARBOUR\LIB\RTL.LIB|color53 ACBP=A9
 0001:000453E4 00000075 C=CODE    S=_TEXT    G=(none)   M=C:\XHARBOUR\LIB\RTL.LIB|cstr ACBP=A9
 0001:0004545C 000001FA C=CODE    S=_TEXT    G=(none)   M=C:\XHARBOUR\LIB\RTL.LIB|errorsys ACBP=A9
 0001:00045658 00000075 C=CODE    S=_TEXT    G=(none)   M=C:\XHARBOUR\LIB\RTL.LIB|getlist ACBP=A9
 0001:000456D0 0000023D C=CODE    S=_TEXT    G=(none)   M=C:\XHARBOUR\LIB\RTL.LIB|getsys ACBP=A9
 0001:00045910 0000002D C=CODE    S=_TEXT    G=(none)   M=C:\XHARBOUR\LIB\RTL.LIB|memvarbl ACBP=A9
 0001:00045940 00000105 C=CODE    S=_TEXT    G=(none)   M=C:\XHARBOUR\LIB\RTL.LIB|mssgline ACBP=A9
 0001:00045A48 0000020D C=CODE    S=_TEXT    G=(none)   M=C:\XHARBOUR\LIB\RTL.LIB|objfunc ACBP=A9
 0001:00045C58 0000038D C=CODE    S=_TEXT    G=(none)   M=C:\XHARBOUR\LIB\RTL.LIB|tclass ACBP=A9
 0001:00045FE8 00000045 C=CODE    S=_TEXT    G=(none)   M=C:\XHARBOUR\LIB\RTL.LIB|terror ACBP=A9
 0001:00046030 00000409 C=CODE    S=_TEXT    G=(none)   M=C:\XHARBOUR\LIB\RTL.LIB|tget ACBP=A9
 0001:0004643C 0000005D C=CODE    S=_TEXT    G=(none)   M=C:\XHARBOUR\LIB\RTL.LIB|tgetint ACBP=A9
 0001:0004649C 000002A1 C=CODE    S=_TEXT    G=(none)   M=C:\XHARBOUR\LIB\RTL.LIB|tgetlist ACBP=A9
 0001:00046740 000000D5 C=CODE    S=_TEXT    G=(none)   M=C:\XHARBOUR\LIB\RTL.LIB|tobject ACBP=A9
 0001:00046818 00000045 C=CODE    S=_TEXT    G=(none)   M=C:\XHARBOUR\LIB\RTL.LIB|traceprg ACBP=A9
 0001:00046860 00006976 C=CODE    S=_TEXT    G=(none)   M=C:\XHARBOUR\LIB\RDD.LIB|dbcmd ACBP=A9
 0001:0004D1D8 000011C3 C=CODE    S=_TEXT    G=(none)   M=C:\XHARBOUR\LIB\RDD.LIB|workarea ACBP=A9
 0001:0004E39C 000047D7 C=CODE    S=_TEXT    G=(none)   M=C:\XHARBOUR\LIB\RDD.LIB|dbf1 ACBP=A9
 0001:00052B74 00000087 C=CODE    S=_TEXT    G=(none)   M=C:\XHARBOUR\LIB\RDD.LIB|delim1 ACBP=A9
 0001:00052BFC 00000087 C=CODE    S=_TEXT    G=(none)   M=C:\XHARBOUR\LIB\RDD.LIB|sdf1 ACBP=A9
 0001:00052C84 00000045 C=CODE    S=_TEXT    G=(none)   M=C:\XHARBOUR\LIB\RDD.LIB|dbf0 ACBP=A9
 0001:00052CCC 00000671 C=CODE    S=_TEXT    G=(none)   M=C:\XHARBOUR\LIB\RDD.LIB|hbdbsort ACBP=A9
 0001:00053340 00000045 C=CODE    S=_TEXT    G=(none)   M=C:\XHARBOUR\LIB\RDD.LIB|delim0 ACBP=A9
 0001:00053388 00000045 C=CODE    S=_TEXT    G=(none)   M=C:\XHARBOUR\LIB\RDD.LIB|rddsys ACBP=A9
 0001:000533D0 00000045 C=CODE    S=_TEXT    G=(none)   M=C:\XHARBOUR\LIB\RDD.LIB|sdf0 ACBP=A9
 0001:00053418 00003EE1 C=CODE    S=_TEXT    G=(none)   M=C:\XHARBOUR\LIB\MACRO.LIB|macroy ACBP=A9
 0001:000572FC 0000030D C=CODE    S=_TEXT    G=(none)   M=C:\XHARBOUR\LIB\MACRO.LIB|macroa ACBP=A9
 0001:0005760C 0000577D C=CODE    S=_TEXT    G=(none)   M=C:\XHARBOUR\LIB\MACRO.LIB|macrob ACBP=A9
 0001:0005CD8C 0000073C C=CODE    S=_TEXT    G=(none)   M=C:\XHARBOUR\LIB\MACRO.LIB|macroc ACBP=A9
 0001:0005D4C8 00001C22 C=CODE    S=_TEXT    G=(none)   M=C:\XHARBOUR\LIB\MACRO.LIB|macroslx ACBP=A9
 0001:0005F0EC 0000033F C=CODE    S=_TEXT    G=(none)   M=C:\XHARBOUR\LIB\COMMON.LIB|hbfsapi ACBP=A9
 0001:0005F42C 00000033 C=CODE    S=_TEXT    G=(none)   M=C:\XHARBOUR\LIB\COMMON.LIB|hbgete ACBP=A9
 0001:0005F460 00000B5B C=CODE    S=_TEXT    G=(none)   M=C:\XHARBOUR\LIB\COMMON.LIB|hbstr ACBP=A9
 0001:0005FFBC 00000225 C=CODE    S=_TEXT    G=(none)   M=C:\XHARBOUR\LIB\COMMON.LIB|hbtrace ACBP=A9
 0001:000601E4 00000EA2 C=CODE    S=_TEXT    G=(none)   M=C:\XHARBOUR\LIB\COMMON.LIB|hbver ACBP=A9
 0001:00061088 00000856 C=CODE    S=_TEXT    G=(none)   M=C:\XHARBOUR\LIB\COMMON.LIB|expropt1 ACBP=A9
 0001:000618E0 0000129B C=CODE    S=_TEXT    G=(none)   M=C:\XHARBOUR\LIB\COMMON.LIB|expropt2 ACBP=A9
 0001:00062B7C 00000060 C=CODE    S=_TEXT    G=(none)   M=C:\XHARBOUR\LIB\COMMON.LIB|reserved ACBP=A9
 0001:00062BDC 00006B70 C=CODE    S=_TEXT    G=(none)   M=C:\XHARBOUR\LIB\DBFNTX.LIB|dbfntx1 ACBP=A9
 0001:0006974C 00000045 C=CODE    S=_TEXT    G=(none)   M=C:\XHARBOUR\LIB\DBFNTX.LIB|dbfntx0 ACBP=A9
 0001:00069794 000002D9 C=CODE    S=_TEXT    G=(none)   M=C:\XHARBOUR\LIB\BCC640.LIB|handles ACBP=A9
 0001:00069A70 00000B42 C=CODE    S=_TEXT    G=(none)   M=C:\XHARBOUR\LIB\DBFDBT.LIB|dbfdbt1 ACBP=A9
 0001:0006A5B4 00000045 C=CODE    S=_TEXT    G=(none)   M=C:\XHARBOUR\LIB\DBFDBT.LIB|dbfdbt0 ACBP=A9
 0001:0006A5FC 00017ED6 C=CODE    S=_TEXT    G=(none)   M=C:\HELIO\SIACHB\LIB\GTWVW.LIB|gtwvw ACBP=A9
 0001:000824D4 0000002B C=CODE    S=_TEXT    G=(none)   M=C:\BORLAND\BCC55\LIB\CW32.LIB|calloc ACBP=A9
 0001:00082500 0000000F C=CODE    S=_TEXT    G=(none)   M=C:\BORLAND\BCC55\LIB\CW32.LIB|del ACBP=A9
 0001:00082510 0000000F C=CODE    S=_TEXT    G=(none)   M=C:\BORLAND\BCC55\LIB\CW32.LIB|delarray ACBP=A9
 0001:00082520 00000111 C=CODE    S=_TEXT    G=(none)   M=C:\BORLAND\BCC55\LIB\CW32.LIB|virtmem ACBP=A9
 0001:00082634 0000009F C=CODE    S=_TEXT    G=(none)   M=C:\BORLAND\BCC55\LIB\CW32.LIB|hrdir_b ACBP=A9
 0001:000826D4 00000020 C=CODE    S=_TEXT    G=(none)   M=C:\BORLAND\BCC55\LIB\CW32.LIB|hrdir_mf ACBP=A9
 0001:000826F4 00000016 C=CODE    S=_TEXT    G=(none)   M=C:\BORLAND\BCC55\LIB\CW32.LIB|hrdir_r ACBP=A9
 0001:0008270C 000000B8 C=CODE    S=_TEXT    G=(none)   M=C:\BORLAND\BCC55\LIB\CW32.LIB|hrdir_s ACBP=A9
 0001:000827C4 00000001 C=CODE    S=_TEXT    G=(none)   M=C:\BORLAND\BCC55\LIB\CW32.LIB|hrdir_us ACBP=A9
 0001:000827C8 000009CC C=CODE    S=_TEXT    G=(none)   M=C:\BORLAND\BCC55\LIB\CW32.LIB|heap ACBP=A9
 0001:00083194 00000292 C=CODE    S=_TEXT    G=(none)   M=C:\BORLAND\BCC55\LIB\CW32.LIB|realloc ACBP=A9
 0001:00083428 00000001 C=CODE    S=_TEXT    G=(none)   M=C:\BORLAND\BCC55\LIB\CW32.LIB|crtlst_i ACBP=A9
 0001:0008342C 00000001 C=CODE    S=_TEXT    G=(none)   M=C:\BORLAND\BCC55\LIB\CW32.LIB|crtlst_l ACBP=A9
 0001:00083430 0000001E C=CODE    S=_TEXT    G=(none)   M=C:\BORLAND\BCC55\LIB\CW32.LIB|memchr ACBP=A9
 0001:00083450 00000024 C=CODE    S=_TEXT    G=(none)   M=C:\BORLAND\BCC55\LIB\CW32.LIB|memcpy ACBP=A9
 0001:00083474 0000004A C=CODE    S=_TEXT    G=(none)   M=C:\BORLAND\BCC55\LIB\CW32.LIB|memmove ACBP=A9
 0001:000834C0 0000008A C=CODE    S=_TEXT    G=(none)   M=C:\BORLAND\BCC55\LIB\CW32.LIB|memset ACBP=A9
 0001:0008354C 00000018 C=CODE    S=_TEXT    G=(none)   M=C:\BORLAND\BCC55\LIB\CW32.LIB|wmemset ACBP=A9
 0001:00083564 0000003C C=CODE    S=_TEXT    G=(none)   M=C:\BORLAND\BCC55\LIB\CW32.LIB|strcat ACBP=A9
 0001:000835A0 00000053 C=CODE    S=_TEXT    G=(none)   M=C:\BORLAND\BCC55\LIB\CW32.LIB|strchr ACBP=A9
 0001:000835F4 0000005A C=CODE    S=_TEXT    G=(none)   M=C:\BORLAND\BCC55\LIB\CW32.LIB|strlen ACBP=A9
 0001:00083650 0000006E C=CODE    S=_TEXT    G=(none)   M=C:\BORLAND\BCC55\LIB\CW32.LIB|strncat ACBP=A9
 0001:000836C0 00000027 C=CODE    S=_TEXT    G=(none)   M=C:\BORLAND\BCC55\LIB\CW32.LIB|strncmp ACBP=A9
 0001:000836E8 0000006C C=CODE    S=_TEXT    G=(none)   M=C:\BORLAND\BCC55\LIB\CW32.LIB|memcmp ACBP=A9
 0001:00083754 00000032 C=CODE    S=_TEXT    G=(none)   M=C:\BORLAND\BCC55\LIB\CW32.LIB|strdup ACBP=A9
 0001:00083788 0000004F C=CODE    S=_TEXT    G=(none)   M=C:\BORLAND\BCC55\LIB\CW32.LIB|strncpy ACBP=A9
 0001:000837D8 0000002B C=CODE    S=_TEXT    G=(none)   M=C:\BORLAND\BCC55\LIB\CW32.LIB|strpbrk ACBP=A9
 0001:00083804 00000029 C=CODE    S=_TEXT    G=(none)   M=C:\BORLAND\BCC55\LIB\CW32.LIB|strrchr ACBP=A9
 0001:00083830 00000054 C=CODE    S=_TEXT    G=(none)   M=C:\BORLAND\BCC55\LIB\CW32.LIB|strstr ACBP=A9
 0001:00083884 00000067 C=CODE    S=_TEXT    G=(none)   M=C:\BORLAND\BCC55\LIB\CW32.LIB|strtok ACBP=A9
 0001:000838EC 00000037 C=CODE    S=_TEXT    G=(none)   M=C:\BORLAND\BCC55\LIB\CW32.LIB|_stpcpy ACBP=A9
 0001:00083924 00000018 C=CODE    S=_TEXT    G=(none)   M=C:\BORLAND\BCC55\LIB\CW32.LIB|wcslen ACBP=A9
 0001:0008393C 0000003F C=CODE    S=_TEXT    G=(none)   M=C:\BORLAND\BCC55\LIB\CW32.LIB|wcscpy ACBP=A9
 0001:0008397C 00000070 C=CODE    S=_TEXT    G=(none)   M=C:\BORLAND\BCC55\LIB\CW32.LIB|xxa ACBP=A9
 0001:000839EC 00000778 C=CODE    S=_TEXT    G=(none)   M=C:\BORLAND\BCC55\LIB\CW32.LIB|xxtype ACBP=A9
 0001:0008413E 000000B6 C=CODE    S=_TEXT    G=(none)   M=C:\BORLAND\BCC55\LIB\CW32.LIB|xxut ACBP=A9
 0001:000841E0 0000014B C=CODE    S=_TEXT    G=(none)   M=C:\BORLAND\BCC55\LIB\CW32.LIB|xxv ACBP=A9
 0001:0008432C 0000000A C=CODE    S=_TEXT    G=(none)   M=C:\BORLAND\BCC55\LIB\CW32.LIB|defhandl ACBP=A9
 0001:00084338 00000179 C=CODE    S=_TEXT    G=(none)   M=C:\BORLAND\BCC55\LIB\CW32.LIB|except ACBP=A9
 0001:000844B4 00000046 C=CODE    S=_TEXT    G=(none)   M=C:\BORLAND\BCC55\LIB\CW32.LIB|setexc ACBP=A9
 0001:000844FC 00000022 C=CODE    S=_TEXT    G=(none)   M=C:\BORLAND\BCC55\LIB\CW32.LIB|ta ACBP=A9
 0001:00084520 0000003C C=CODE    S=_TEXT    G=(none)   M=C:\BORLAND\BCC55\LIB\CW32.LIB|__access ACBP=A9
 0001:0008455C 00000060 C=CODE    S=_TEXT    G=(none)   M=C:\BORLAND\BCC55\LIB\CW32.LIB|__close ACBP=A9
 0001:000845BC 00000013 C=CODE    S=_TEXT    G=(none)   M=C:\BORLAND\BCC55\LIB\CW32.LIB|__dup ACBP=A9
 0001:000845D0 000000EF C=CODE    S=_TEXT    G=(none)   M=C:\BORLAND\BCC55\LIB\CW32.LIB|__dup2 ACBP=A9
 0001:000846C0 00000086 C=CODE    S=_TEXT    G=(none)   M=C:\BORLAND\BCC55\LIB\CW32.LIB|__eof ACBP=A9
 0001:00084748 00000047 C=CODE    S=_TEXT    G=(none)   M=C:\BORLAND\BCC55\LIB\CW32.LIB|__isatty ACBP=A9
 0001:00084790 00000076 C=CODE    S=_TEXT    G=(none)   M=C:\BORLAND\BCC55\LIB\CW32.LIB|__lseek ACBP=A9
 0001:00084808 000001FA C=CODE    S=_TEXT    G=(none)   M=C:\BORLAND\BCC55\LIB\CW32.LIB|__open ACBP=A9
 0001:00084A04 0000019A C=CODE    S=_TEXT    G=(none)   M=C:\BORLAND\BCC55\LIB\CW32.LIB|__read ACBP=A9
 0001:00084BA0 0000011C C=CODE    S=_TEXT    G=(none)   M=C:\BORLAND\BCC55\LIB\CW32.LIB|__write ACBP=A9
 0001:00084CBC 00000011 C=CODE    S=_TEXT    G=(none)   M=C:\BORLAND\BCC55\LIB\CW32.LIB|_cfinfo ACBP=A9
 0001:00084CD0 00000038 C=CODE    S=_TEXT    G=(none)   M=C:\BORLAND\BCC55\LIB\CW32.LIB|_flshall ACBP=A9
 0001:00084D08 00000061 C=CODE    S=_TEXT    G=(none)   M=C:\BORLAND\BCC55\LIB\CW32.LIB|_read ACBP=A9
 0001:00084D69 00000017 C=CODE    S=_TEXT    G=(none)   M=C:\BORLAND\BCC55\LIB\CW32.LIB|_umask ACBP=A9
 0001:00084D6C 00000061 C=CODE    S=_TEXT    G=(none)   M=C:\BORLAND\BCC55\LIB\CW32.LIB|_write ACBP=A9
 0001:00084DD0 00000008 C=CODE    S=_TEXT    G=(none)   M=C:\BORLAND\BCC55\LIB\CW32.LIB|access ACBP=A9
 0001:00084DD8 0000007D C=CODE    S=_TEXT    G=(none)   M=C:\BORLAND\BCC55\LIB\CW32.LIB|allocbuf ACBP=A9
 0001:00084E58 0000009B C=CODE    S=_TEXT    G=(none)   M=C:\BORLAND\BCC55\LIB\CW32.LIB|chdrive ACBP=A9
 0001:00084EF4 00000008 C=CODE    S=_TEXT    G=(none)   M=C:\BORLAND\BCC55\LIB\CW32.LIB|close ACBP=A9
 0001:00084EFC 00000008 C=CODE    S=_TEXT    G=(none)   M=C:\BORLAND\BCC55\LIB\CW32.LIB|dup ACBP=A9
 0001:00084F04 00000008 C=CODE    S=_TEXT    G=(none)   M=C:\BORLAND\BCC55\LIB\CW32.LIB|eof ACBP=A9
 0001:00084F0C 0000008E C=CODE    S=_TEXT    G=(none)   M=C:\BORLAND\BCC55\LIB\CW32.LIB|fclose ACBP=A9
 0001:00084F9C 0000007F C=CODE    S=_TEXT    G=(none)   M=C:\BORLAND\BCC55\LIB\CW32.LIB|fflush ACBP=A9
 0001:0008501C 0000005A C=CODE    S=_TEXT    G=(none)   M=C:\BORLAND\BCC55\LIB\CW32.LIB|flushout ACBP=A9
 0001:00085078 00000023 C=CODE    S=_TEXT    G=(none)   M=C:\BORLAND\BCC55\LIB\CW32.LIB|fmodeptr ACBP=A9
 0001:0008509C 000001DD C=CODE    S=_TEXT    G=(none)   M=C:\BORLAND\BCC55\LIB\CW32.LIB|fopen ACBP=A9
 0001:0008527C 00000022 C=CODE    S=_TEXT    G=(none)   M=C:\BORLAND\BCC55\LIB\CW32.LIB|fprintf ACBP=A9
 0001:000852A0 000000D9 C=CODE    S=_TEXT    G=(none)   M=C:\BORLAND\BCC55\LIB\CW32.LIB|fputn ACBP=A9
 0001:0008537C 0000013E C=CODE    S=_TEXT    G=(none)   M=C:\BORLAND\BCC55\LIB\CW32.LIB|fseek ACBP=A9
 0001:000854BC 00000076 C=CODE    S=_TEXT    G=(none)   M=C:\BORLAND\BCC55\LIB\CW32.LIB|ioerror ACBP=A9
 0001:00085534 00000008 C=CODE    S=_TEXT    G=(none)   M=C:\BORLAND\BCC55\LIB\CW32.LIB|isatty ACBP=A9
 0001:0008553C 0000019E C=CODE    S=_TEXT    G=(none)   M=C:\BORLAND\BCC55\LIB\CW32.LIB|lgetc ACBP=A9
 0001:000856DC 00000110 C=CODE    S=_TEXT    G=(none)   M=C:\BORLAND\BCC55\LIB\CW32.LIB|lputc ACBP=A9
 0001:000857EC 00000091 C=CODE    S=_TEXT    G=(none)   M=C:\BORLAND\BCC55\LIB\CW32.LIB|mkname ACBP=A9
 0001:0008587D 00000079 C=CODE    S=_TEXT    G=(none)   M=C:\BORLAND\BCC55\LIB\CW32.LIB|perror ACBP=A9
 0001:00085880 00000023 C=CODE    S=_TEXT    G=(none)   M=C:\BORLAND\BCC55\LIB\CW32.LIB|printf ACBP=A9
 0001:000858A4 0000006B C=CODE    S=_TEXT    G=(none)   M=C:\BORLAND\BCC55\LIB\CW32.LIB|setmode ACBP=A9
 0001:00085910 0000004D C=CODE    S=_TEXT    G=(none)   M=C:\BORLAND\BCC55\LIB\CW32.LIB|setvbuf ACBP=A9
 0001:00085960 00000100 C=CODE    S=_TEXT    G=(none)   M=C:\BORLAND\BCC55\LIB\CW32.LIB|snprntf ACBP=A9
 0001:00085A60 00000078 C=CODE    S=_TEXT    G=(none)   M=C:\BORLAND\BCC55\LIB\CW32.LIB|sprintf ACBP=A9
 0001:00085AD8 00000115 C=CODE    S=_TEXT    G=(none)   M=C:\BORLAND\BCC55\LIB\CW32.LIB|streams ACBP=A9
 0001:00085BF0 0000001A C=CODE    S=_TEXT    G=(none)   M=C:\BORLAND\BCC55\LIB\CW32.LIB|unlink ACBP=A9
 0001:00085C0C 00000022 C=CODE    S=_TEXT    G=(none)   M=C:\BORLAND\BCC55\LIB\CW32.LIB|vfprintf ACBP=A9
 0001:00085C30 000009EC C=CODE    S=_TEXT    G=(none)   M=C:\BORLAND\BCC55\LIB\CW32.LIB|vprinter ACBP=A9
 0001:0008661C 0000002E C=CODE    S=_TEXT    G=(none)   M=C:\BORLAND\BCC55\LIB\CW32.LIB|xfclose ACBP=A9
 0001:0008664C 00000027 C=CODE    S=_TEXT    G=(none)   M=C:\BORLAND\BCC55\LIB\CW32.LIB|xfflush ACBP=A9
 0001:00086674 00000051 C=CODE    S=_TEXT    G=(none)   M=C:\BORLAND\BCC55\LIB\CW32.LIB|getinfo ACBP=A9
 0001:000866C8 00000102 C=CODE    S=_TEXT    G=(none)   M=C:\BORLAND\BCC55\LIB\CW32.LIB|is ACBP=A9
 0001:000867CC 00000103 C=CODE    S=_TEXT    G=(none)   M=C:\BORLAND\BCC55\LIB\CW32.LIB|wis ACBP=A9
 0001:000868D0 00000043 C=CODE    S=_TEXT    G=(none)   M=C:\BORLAND\BCC55\LIB\CW32.LIB|isctype ACBP=A9
 0001:00086914 00000055 C=CODE    S=_TEXT    G=(none)   M=C:\BORLAND\BCC55\LIB\CW32.LIB|iswctype ACBP=A9
 0001:0008696C 00000054 C=CODE    S=_TEXT    G=(none)   M=C:\BORLAND\BCC55\LIB\CW32.LIB|ltolower ACBP=A9
 0001:000869C0 00000054 C=CODE    S=_TEXT    G=(none)   M=C:\BORLAND\BCC55\LIB\CW32.LIB|ltowlwr ACBP=A9
 0001:00086A14 00000054 C=CODE    S=_TEXT    G=(none)   M=C:\BORLAND\BCC55\LIB\CW32.LIB|ltoupper ACBP=A9
 0001:00086A68 00000054 C=CODE    S=_TEXT    G=(none)   M=C:\BORLAND\BCC55\LIB\CW32.LIB|ltowupr ACBP=A9
 0001:00086ABC 000004D0 C=CODE    S=_TEXT    G=(none)   M=C:\BORLAND\BCC55\LIB\CW32.LIB|mbyte1 ACBP=A9
 0001:00086F8C 00000200 C=CODE    S=_TEXT    G=(none)   M=C:\BORLAND\BCC55\LIB\CW32.LIB|_ll ACBP=A9
 0001:0008718C 0000001D C=CODE    S=_TEXT    G=(none)   M=C:\BORLAND\BCC55\LIB\CW32.LIB|_finite ACBP=A9
 0001:000871AC 00000045 C=CODE    S=_TEXT    G=(none)   M=C:\BORLAND\BCC55\LIB\CW32.LIB|_isnan ACBP=A9
 0001:000871F4 000000B0 C=CODE    S=_TEXT    G=(none)   M=C:\BORLAND\BCC55\LIB\CW32.LIB|_matherr ACBP=A9
 0001:000872A4 00000188 C=CODE    S=_TEXT    G=(none)   M=C:\BORLAND\BCC55\LIB\CW32.LIB|_pow10 ACBP=A9
 0001:0008742C 00000077 C=CODE    S=_TEXT    G=(none)   M=C:\BORLAND\BCC55\LIB\CW32.LIB|atol ACBP=A9
 0001:000874A4 0000001C C=CODE    S=_TEXT    G=(none)   M=C:\BORLAND\BCC55\LIB\CW32.LIB|ceil ACBP=A9
 0001:000874C0 00000013 C=CODE    S=_TEXT    G=(none)   M=C:\BORLAND\BCC55\LIB\CW32.LIB|clear87 ACBP=A9
 0001:000874D4 0000002F C=CODE    S=_TEXT    G=(none)   M=C:\BORLAND\BCC55\LIB\CW32.LIB|ctrl87 ACBP=A9
 0001:00087504 00000018 C=CODE    S=_TEXT    G=(none)   M=C:\BORLAND\BCC55\LIB\CW32.LIB|cvtentry ACBP=A9
 0001:0008751C 00000018 C=CODE    S=_TEXT    G=(none)   M=C:\BORLAND\BCC55\LIB\CW32.LIB|cvtfak ACBP=A9
 0001:00087534 00000018 C=CODE    S=_TEXT    G=(none)   M=C:\BORLAND\BCC55\LIB\CW32.LIB|cvtfakw ACBP=A9
 0001:0008754C 0000006C C=CODE    S=_TEXT    G=(none)   M=C:\BORLAND\BCC55\LIB\CW32.LIB|exp ACBP=A9
 0001:000875B8 000000CD C=CODE    S=_TEXT    G=(none)   M=C:\BORLAND\BCC55\LIB\CW32.LIB|f87exp ACBP=A9
 0001:00087688 00000048 C=CODE    S=_TEXT    G=(none)   M=C:\BORLAND\BCC55\LIB\CW32.LIB|f87log ACBP=A9
 0001:000876D0 0000004D C=CODE    S=_TEXT    G=(none)   M=C:\BORLAND\BCC55\LIB\CW32.LIB|fmod ACBP=A9
 0001:00087720 00000016 C=CODE    S=_TEXT    G=(none)   M=C:\BORLAND\BCC55\LIB\CW32.LIB|fpreset ACBP=A9
 0001:00087738 00000028 C=CODE    S=_TEXT    G=(none)   M=C:\BORLAND\BCC55\LIB\CW32.LIB|ftol ACBP=A9
 0001:00087760 0000002D C=CODE    S=_TEXT    G=(none)   M=C:\BORLAND\BCC55\LIB\CW32.LIB|fuildq ACBP=A9
 0001:00087790 00000021 C=CODE    S=_TEXT    G=(none)   M=C:\BORLAND\BCC55\LIB\CW32.LIB|fuistq ACBP=A9
 0001:000877B4 00000011 C=CODE    S=_TEXT    G=(none)   M=C:\BORLAND\BCC55\LIB\CW32.LIB|fxam ACBP=A9
 0001:000877C8 000000B1 C=CODE    S=_TEXT    G=(none)   M=C:\BORLAND\BCC55\LIB\CW32.LIB|int64toa ACBP=A9
 0001:0008787C 00000117 C=CODE    S=_TEXT    G=(none)   M=C:\BORLAND\BCC55\LIB\CW32.LIB|ldtrunc ACBP=A9
 0001:00087994 0000006D C=CODE    S=_TEXT    G=(none)   M=C:\BORLAND\BCC55\LIB\CW32.LIB|log ACBP=A9
 0001:00087A04 0000008F C=CODE    S=_TEXT    G=(none)   M=C:\BORLAND\BCC55\LIB\CW32.LIB|longtoa ACBP=A9
 0001:00087A94 00000075 C=CODE    S=_TEXT    G=(none)   M=C:\BORLAND\BCC55\LIB\CW32.LIB|ltoa1 ACBP=A9
 0001:00087B0C 0000002E C=CODE    S=_TEXT    G=(none)   M=C:\BORLAND\BCC55\LIB\CW32.LIB|matherrl ACBP=A9
 0001:00087B3C 00000016 C=CODE    S=_TEXT    G=(none)   M=C:\BORLAND\BCC55\LIB\CW32.LIB|mathptr ACBP=A9
 0001:00087B54 00000030 C=CODE    S=_TEXT    G=(none)   M=C:\BORLAND\BCC55\LIB\CW32.LIB|modf ACBP=A9
 0001:00087B84 000001DC C=CODE    S=_TEXT    G=(none)   M=C:\BORLAND\BCC55\LIB\CW32.LIB|pow ACBP=A9
 0001:00087D60 00000025 C=CODE    S=_TEXT    G=(none)   M=C:\BORLAND\BCC55\LIB\CW32.LIB|qdiv10 ACBP=A9
 0001:00087D88 0000002E C=CODE    S=_TEXT    G=(none)   M=C:\BORLAND\BCC55\LIB\CW32.LIB|qmul10 ACBP=A9
 0001:00087DB8 0000008E C=CODE    S=_TEXT    G=(none)   M=C:\BORLAND\BCC55\LIB\CW32.LIB|rand ACBP=A9
 0001:00087E48 000002F9 C=CODE    S=_TEXT    G=(none)   M=C:\BORLAND\BCC55\LIB\CW32.LIB|realcvt ACBP=A9
 0001:00088144 00000331 C=CODE    S=_TEXT    G=(none)   M=C:\BORLAND\BCC55\LIB\CW32.LIB|realcvtw ACBP=A9
 0001:00088478 0000002C C=CODE    S=_TEXT    G=(none)   M=C:\BORLAND\BCC55\LIB\CW32.LIB|round ACBP=A9
 0001:000884A4 000004E1 C=CODE    S=_TEXT    G=(none)   M=C:\BORLAND\BCC55\LIB\CW32.LIB|scantod ACBP=A9
 0001:00088988 000004DD C=CODE    S=_TEXT    G=(none)   M=C:\BORLAND\BCC55\LIB\CW32.LIB|scanwtod ACBP=A9
 0001:00088E68 0000003A C=CODE    S=_TEXT    G=(none)   M=C:\BORLAND\BCC55\LIB\CW32.LIB|sqrt ACBP=A9
 0001:00088EA4 000002D2 C=CODE    S=_TEXT    G=(none)   M=C:\BORLAND\BCC55\LIB\CW32.LIB|xcvt ACBP=A9
 0001:00089178 000002F1 C=CODE    S=_TEXT    G=(none)   M=C:\BORLAND\BCC55\LIB\CW32.LIB|xcvtw ACBP=A9
 0001:0008946C 00000139 C=CODE    S=_TEXT    G=(none)   M=C:\BORLAND\BCC55\LIB\CW32.LIB|mbctype ACBP=A9
 0001:000895A8 0000003D C=CODE    S=_TEXT    G=(none)   M=C:\BORLAND\BCC55\LIB\CW32.LIB|mbisalp ACBP=A9
 0001:000895E8 0000001A C=CODE    S=_TEXT    G=(none)   M=C:\BORLAND\BCC55\LIB\CW32.LIB|mbisdgt ACBP=A9
 0001:00089604 0000001A C=CODE    S=_TEXT    G=(none)   M=C:\BORLAND\BCC55\LIB\CW32.LIB|mbisspc ACBP=A9
 0001:00089620 00000054 C=CODE    S=_TEXT    G=(none)   M=C:\BORLAND\BCC55\LIB\CW32.LIB|mbsnbcpy ACBP=A9
 0001:00089674 000000BF C=CODE    S=_TEXT    G=(none)   M=C:\BORLAND\BCC55\LIB\CW32.LIB|mbsnbicm ACBP=A9
 0001:00089734 00000056 C=CODE    S=_TEXT    G=(none)   M=C:\BORLAND\BCC55\LIB\CW32.LIB|mbsrchr ACBP=A9
 0001:0008978C 000000A6 C=CODE    S=_TEXT    G=(none)   M=C:\BORLAND\BCC55\LIB\CW32.LIB|assert ACBP=A9
 0001:00089834 000000B8 C=CODE    S=_TEXT    G=(none)   M=C:\BORLAND\BCC55\LIB\CW32.LIB|ermsghlp ACBP=A9
 0001:000898EC 00000006 C=CODE    S=_TEXT    G=(none)   M=C:\BORLAND\BCC55\LIB\CW32.LIB|errno ACBP=A9
 0001:000898EC 0000019B C=CODE    S=_TEXT    G=(none)   M=C:\BORLAND\BCC55\LIB\CW32.LIB|errormsg ACBP=A9
 0001:00089A88 00000089 C=CODE    S=_TEXT    G=(none)   M=C:\BORLAND\BCC55\LIB\CW32.LIB|platform ACBP=A9
 0001:00089B14 00000236 C=CODE    S=_TEXT    G=(none)   M=C:\BORLAND\BCC55\LIB\CW32.LIB|qsort ACBP=A9
 0001:00089D4C 00000022 C=CODE    S=_TEXT    G=(none)   M=C:\BORLAND\BCC55\LIB\CW32.LIB|abort ACBP=A9
 0001:00089D70 000000A7 C=CODE    S=_TEXT    G=(none)   M=C:\BORLAND\BCC55\LIB\CW32.LIB|exit ACBP=A9
 0001:00089E18 00000057 C=CODE    S=_TEXT    G=(none)   M=C:\BORLAND\BCC55\LIB\CW32.LIB|getenv ACBP=A9
 0001:00089E70 0000001A C=CODE    S=_TEXT    G=(none)   M=C:\BORLAND\BCC55\LIB\CW32.LIB|initwild ACBP=A9
 0001:00089E8C 00000011 C=CODE    S=_TEXT    G=(none)   M=C:\BORLAND\BCC55\LIB\CW32.LIB|exparg ACBP=A9
 0001:00089EA0 00000011 C=CODE    S=_TEXT    G=(none)   M=C:\BORLAND\BCC55\LIB\CW32.LIB|wexparg ACBP=A9
 0001:00089EB4 00000027 C=CODE    S=_TEXT    G=(none)   M=C:\BORLAND\BCC55\LIB\CW32.LIB|initargv ACBP=A9
 0001:00089EDC 0000016C C=CODE    S=_TEXT    G=(none)   M=C:\BORLAND\BCC55\LIB\CW32.LIB|setargv ACBP=A9
 0001:0008A048 000001E5 C=CODE    S=_TEXT    G=(none)   M=C:\BORLAND\BCC55\LIB\CW32.LIB|hsargv ACBP=A9
 0001:0008A230 00000227 C=CODE    S=_TEXT    G=(none)   M=C:\BORLAND\BCC55\LIB\CW32.LIB|whsargv ACBP=A9
 0001:0008A458 00000045 C=CODE    S=_TEXT    G=(none)   M=C:\BORLAND\BCC55\LIB\CW32.LIB|setargv0 ACBP=A9
 0001:0008A4A0 000001A0 C=CODE    S=_TEXT    G=(none)   M=C:\BORLAND\BCC55\LIB\CW32.LIB|setenvp ACBP=A9
 0001:0008A640 000002F8 C=CODE    S=_TEXT    G=(none)   M=C:\BORLAND\BCC55\LIB\CW32.LIB|signal ACBP=A9
 0001:0008A938 00000157 C=CODE    S=_TEXT    G=(none)   M=C:\BORLAND\BCC55\LIB\CW32.LIB|initexit ACBP=A9
 0001:0008AA90 000001A4 C=CODE    S=_TEXT    G=(none)   M=C:\BORLAND\BCC55\LIB\CW32.LIB|startup ACBP=A9
 0001:0008AC34 0000004F C=CODE    S=_TEXT    G=(none)   M=C:\BORLAND\BCC55\LIB\CW32.LIB|tlsstat ACBP=A9
 0001:0008AC84 000001A9 C=CODE    S=_TEXT    G=(none)   M=C:\BORLAND\BCC55\LIB\CW32.LIB|gmtime ACBP=A9
 0001:0008AE30 000002A4 C=CODE    S=_TEXT    G=(none)   M=C:\BORLAND\BCC55\LIB\CW32.LIB|timefunc ACBP=A9
 0001:0008B0D4 00000006 C=CODE    S=_TEXT    G=(none)   M=C:\BORLAND\BCC55\LIB\CW32.LIB|tzdata ACBP=A9
 0001:0008B0DC 000001C8 C=CODE    S=_TEXT    G=(none)   M=C:\BORLAND\BCC55\LIB\CW32.LIB|tzset ACBP=A9
 0001:0008B2A4 00000008 C=CODE    S=_TEXT    G=(none)   M=C:\BORLAND\BCC55\LIB\CW32.LIB|_tzset ACBP=A9
 0001:0008B2AC 00000017 C=CODE    S=_TEXT    G=(none)   M=C:\BORLAND\BCC55\LIB\CW32.LIB|clock ACBP=A9
 0001:0008B2C4 0000009E C=CODE    S=_TEXT    G=(none)   M=C:\BORLAND\BCC55\LIB\CW32.LIB|ftime ACBP=A9
 0001:0008B364 0000004D C=CODE    S=_TEXT    G=(none)   M=C:\BORLAND\BCC55\LIB\CW32.LIB|time ACBP=A9
 0001:0008B3B4 00001BA2 C=CODE    S=_TEXT    G=(none)   M=C:\BORLAND\BCC55\LIB\CW32.LIB|xx ACBP=A9
 0002:00000164 000000A4 C=DATA    S=_DATA    G=DGROUP   M=C:\BORLAND\BCC55\LIB\C0W32.OBJ ACBP=A9
 0002:00000208 000009C0 C=DATA    S=_DATA    G=DGROUP   M=C:\HELIO\SIACHB\COR.OBJ ACBP=A9
 0002:00000BC8 00000978 C=DATA    S=_DATA    G=DGROUP   M=C:\XHARBOUR\LIB\LANG.LIB|msgen ACBP=A9
 0002:00001540 00000230 C=DATA    S=_DATA    G=DGROUP   M=C:\XHARBOUR\LIB\VM.LIB|arrayshb ACBP=A9
 0002:00001770 00000304 C=DATA    S=_DATA    G=DGROUP   M=C:\XHARBOUR\LIB\VM.LIB|classes ACBP=A9
 0002:00001A74 000000D8 C=DATA    S=_DATA    G=DGROUP   M=C:\XHARBOUR\LIB\VM.LIB|cmdarg ACBP=A9
 0002:00001B4C 00000010 C=DATA    S=_DATA    G=DGROUP   M=C:\XHARBOUR\LIB\VM.LIB|dynsym ACBP=A9
 0002:00001B5C 000001DC C=DATA    S=_DATA    G=DGROUP   M=C:\XHARBOUR\LIB\VM.LIB|errorapi ACBP=A9
 0002:00001D38 00000140 C=DATA    S=_DATA    G=DGROUP   M=C:\XHARBOUR\LIB\VM.LIB|estack ACBP=A9
 0002:00001E78 0000001C C=DATA    S=_DATA    G=DGROUP   M=C:\XHARBOUR\LIB\VM.LIB|eval ACBP=A9
 0002:00001E94 00000004 C=DATA    S=_DATA    G=DGROUP   M=C:\XHARBOUR\LIB\VM.LIB|extend ACBP=A9
 0002:00001E98 00000330 C=DATA    S=_DATA    G=DGROUP   M=C:\XHARBOUR\LIB\VM.LIB|fm ACBP=A9
 0002:000021C8 00000018 C=DATA    S=_DATA    G=DGROUP   M=C:\XHARBOUR\LIB\VM.LIB|garbage ACBP=A9
 0002:000021E0 0000022C C=DATA    S=_DATA    G=DGROUP   M=C:\XHARBOUR\LIB\VM.LIB|hash ACBP=A9
 0002:0000240C 00000098 C=DATA    S=_DATA    G=DGROUP   M=C:\XHARBOUR\LIB\VM.LIB|hbi18n ACBP=A9
 0002:000024A4 00000E70 C=DATA    S=_DATA    G=DGROUP   M=C:\XHARBOUR\LIB\VM.LIB|hvm ACBP=A9
 0002:00003314 00000568 C=DATA    S=_DATA    G=DGROUP   M=C:\XHARBOUR\LIB\VM.LIB|initsymb ACBP=A9
 0002:0000387C 00000024 C=DATA    S=_DATA    G=DGROUP   M=C:\XHARBOUR\LIB\VM.LIB|itemapi ACBP=A9
 0002:000038A0 000000A8 C=DATA    S=_DATA    G=DGROUP   M=C:\XHARBOUR\LIB\VM.LIB|fastitem ACBP=A9
 0002:00003948 00000024 C=DATA    S=_DATA    G=DGROUP   M=C:\XHARBOUR\LIB\VM.LIB|macro ACBP=A9
 0002:0000396C 00000004 C=DATA    S=_DATA    G=DGROUP   M=C:\XHARBOUR\LIB\VM.LIB|mainwin ACBP=A9
 0002:00003970 000000CC C=DATA    S=_DATA    G=DGROUP   M=C:\XHARBOUR\LIB\VM.LIB|memvars ACBP=A9
 0002:00003A3C 000000C8 C=DATA    S=_DATA    G=DGROUP   M=C:\XHARBOUR\LIB\VM.LIB|proc ACBP=A9
 0002:00003B04 00000448 C=DATA    S=_DATA    G=DGROUP   M=C:\XHARBOUR\LIB\VM.LIB|harbinit ACBP=A9
 0002:00003F4C 00000004 C=DATA    S=_DATA    G=DGROUP   M=C:\XHARBOUR\LIB\RTL.LIB|abs ACBP=A9
 0002:00003F50 0000000C C=DATA    S=_DATA    G=DGROUP   M=C:\XHARBOUR\LIB\RTL.LIB|at ACBP=A9
 0002:00003F5C 00000010 C=DATA    S=_DATA    G=DGROUP   M=C:\XHARBOUR\LIB\RTL.LIB|bkgtsks ACBP=A9
 0002:00003F6C 0000000C C=DATA    S=_DATA    G=DGROUP   M=C:\XHARBOUR\LIB\RTL.LIB|box ACBP=A9
 0002:00003F78 00000264 C=DATA    S=_DATA    G=DGROUP   M=C:\XHARBOUR\LIB\RTL.LIB|cdpapi ACBP=A9
 0002:000041DC 00000008 C=DATA    S=_DATA    G=DGROUP   M=C:\XHARBOUR\LIB\RTL.LIB|chrasc ACBP=A9
 0002:000041E4 00000004 C=DATA    S=_DATA    G=DGROUP   M=C:\XHARBOUR\LIB\RTL.LIB|colorind ACBP=A9
 0002:000041E8 00000024 C=DATA    S=_DATA    G=DGROUP   M=C:\XHARBOUR\LIB\RTL.LIB|console ACBP=A9
 0002:0000420C 00000010 C=DATA    S=_DATA    G=DGROUP   M=C:\XHARBOUR\LIB\RTL.LIB|datec ACBP=A9
 0002:0000421C 00000040 C=DATA    S=_DATA    G=DGROUP   M=C:\XHARBOUR\LIB\RTL.LIB|dates ACBP=A9
 0002:0000425C 00000040 C=DATA    S=_DATA    G=DGROUP   M=C:\XHARBOUR\LIB\RTL.LIB|dateshb ACBP=A9
 0002:0000429C 00000018 C=DATA    S=_DATA    G=DGROUP   M=C:\XHARBOUR\LIB\RTL.LIB|filesys ACBP=A9
 0002:000042B4 00000004 C=DATA    S=_DATA    G=DGROUP   M=C:\XHARBOUR\LIB\RTL.LIB|fserror ACBP=A9
 0002:000042B8 00000094 C=DATA    S=_DATA    G=DGROUP   M=C:\XHARBOUR\LIB\RTL.LIB|fparse ACBP=A9
 0002:0000434C 00000004 C=DATA    S=_DATA    G=DGROUP   M=C:\XHARBOUR\LIB\RTL.LIB|fstemp ACBP=A9
 0002:00004350 00000184 C=DATA    S=_DATA    G=DGROUP   M=C:\XHARBOUR\LIB\RTL.LIB|gtapi ACBP=A9
 0002:000044D4 00000060 C=DATA    S=_DATA    G=DGROUP   M=C:\XHARBOUR\LIB\RTL.LIB|hbbitf ACBP=A9
 0002:00004534 00000020 C=DATA    S=_DATA    G=DGROUP   M=C:\XHARBOUR\LIB\RTL.LIB|hbffind ACBP=A9
 0002:00004554 00000030 C=DATA    S=_DATA    G=DGROUP   M=C:\XHARBOUR\LIB\RTL.LIB|hbhex2n ACBP=A9
 0002:00004584 00000004 C=DATA    S=_DATA    G=DGROUP   M=C:\XHARBOUR\LIB\RTL.LIB|hbrandom ACBP=A9
 0002:00004588 00000360 C=DATA    S=_DATA    G=DGROUP   M=C:\XHARBOUR\LIB\RTL.LIB|hbserv ACBP=A9
 0002:000048E8 00000018 C=DATA    S=_DATA    G=DGROUP   M=C:\XHARBOUR\LIB\RTL.LIB|idle ACBP=A9
 0002:00004900 00000040 C=DATA    S=_DATA    G=DGROUP   M=C:\XHARBOUR\LIB\RTL.LIB|inkey ACBP=A9
 0002:00004940 00000060 C=DATA    S=_DATA    G=DGROUP   M=C:\XHARBOUR\LIB\RTL.LIB|langapi ACBP=A9
 0002:000049A0 00000008 C=DATA    S=_DATA    G=DGROUP   M=C:\XHARBOUR\LIB\RTL.LIB|left ACBP=A9
 0002:000049A8 00000004 C=DATA    S=_DATA    G=DGROUP   M=C:\XHARBOUR\LIB\RTL.LIB|len ACBP=A9
 0002:000049AC 00000154 C=DATA    S=_DATA    G=DGROUP   M=C:\XHARBOUR\LIB\RTL.LIB|math ACBP=A9
 0002:00004B00 00000008 C=DATA    S=_DATA    G=DGROUP   M=C:\XHARBOUR\LIB\RTL.LIB|minmax ACBP=A9
 0002:00004B08 00000010 C=DATA    S=_DATA    G=DGROUP   M=C:\XHARBOUR\LIB\RTL.LIB|mouseapi ACBP=A9
 0002:00004B18 00000038 C=DATA    S=_DATA    G=DGROUP   M=C:\XHARBOUR\LIB\RTL.LIB|natmsg ACBP=A9
 0002:00004B50 00000004 C=DATA    S=_DATA    G=DGROUP   M=C:\XHARBOUR\LIB\RTL.LIB|padc ACBP=A9
 0002:00004B54 00000004 C=DATA    S=_DATA    G=DGROUP   M=C:\XHARBOUR\LIB\RTL.LIB|padl ACBP=A9
 0002:00004B58 00000004 C=DATA    S=_DATA    G=DGROUP   M=C:\XHARBOUR\LIB\RTL.LIB|padr ACBP=A9
 0002:00004B5C 000000E0 C=DATA    S=_DATA    G=DGROUP   M=C:\XHARBOUR\LIB\RTL.LIB|philes ACBP=A9
 0002:00004C3C 00000D94 C=DATA    S=_DATA    G=DGROUP   M=C:\XHARBOUR\LIB\RTL.LIB|regex ACBP=A9
 0002:000059D0 0000000C C=DATA    S=_DATA    G=DGROUP   M=C:\XHARBOUR\LIB\RTL.LIB|replic ACBP=A9
 0002:000059DC 0000000C C=DATA    S=_DATA    G=DGROUP   M=C:\XHARBOUR\LIB\RTL.LIB|round ACBP=A9
 0002:000059E8 000000AC C=DATA    S=_DATA    G=DGROUP   M=C:\XHARBOUR\LIB\RTL.LIB|set ACBP=A9
 0002:00005A94 00000008 C=DATA    S=_DATA    G=DGROUP   M=C:\XHARBOUR\LIB\RTL.LIB|space ACBP=A9
 0002:00005A9C 00000004 C=DATA    S=_DATA    G=DGROUP   M=C:\XHARBOUR\LIB\RTL.LIB|spfiles ACBP=A9
 0002:00005AA0 00000004 C=DATA    S=_DATA    G=DGROUP   M=C:\XHARBOUR\LIB\RTL.LIB|str ACBP=A9
 0002:00005AA4 0000000C C=DATA    S=_DATA    G=DGROUP   M=C:\XHARBOUR\LIB\RTL.LIB|strcase ACBP=A9
 0002:00005AB0 00000004 C=DATA    S=_DATA    G=DGROUP   M=C:\XHARBOUR\LIB\RTL.LIB|strdel ACBP=A9
 0002:00005AB4 0000000C C=DATA    S=_DATA    G=DGROUP   M=C:\XHARBOUR\LIB\RTL.LIB|strtran ACBP=A9
 0002:00005AC0 00000004 C=DATA    S=_DATA    G=DGROUP   M=C:\XHARBOUR\LIB\RTL.LIB|stuff ACBP=A9
 0002:00005AC4 00000008 C=DATA    S=_DATA    G=DGROUP   M=C:\XHARBOUR\LIB\RTL.LIB|substr ACBP=A9
 0002:00005ACC 0000007C C=DATA    S=_DATA    G=DGROUP   M=C:\XHARBOUR\LIB\RTL.LIB|tprinter ACBP=A9
 0002:00005B48 0000002C C=DATA    S=_DATA    G=DGROUP   M=C:\XHARBOUR\LIB\RTL.LIB|trace ACBP=A9
 0002:00005B74 0000008C C=DATA    S=_DATA    G=DGROUP   M=C:\XHARBOUR\LIB\RTL.LIB|transfrm ACBP=A9
 0002:00005C00 00000010 C=DATA    S=_DATA    G=DGROUP   M=C:\XHARBOUR\LIB\RTL.LIB|trim ACBP=A9
 0002:00005C10 00000008 C=DATA    S=_DATA    G=DGROUP   M=C:\XHARBOUR\LIB\RTL.LIB|type ACBP=A9
 0002:00005C18 00000004 C=DATA    S=_DATA    G=DGROUP   M=C:\XHARBOUR\LIB\RTL.LIB|val ACBP=A9
 0002:00005C1C 0000000C C=DATA    S=_DATA    G=DGROUP   M=C:\XHARBOUR\LIB\RTL.LIB|valtype ACBP=A9
 0002:00005C28 00000058 C=DATA    S=_DATA    G=DGROUP   M=C:\XHARBOUR\LIB\RTL.LIB|version ACBP=A9
 0002:00005C80 00000008 C=DATA    S=_DATA    G=DGROUP   M=C:\XHARBOUR\LIB\RTL.LIB|word ACBP=A9
 0002:00005C88 00000008 C=DATA    S=_DATA    G=DGROUP   M=C:\XHARBOUR\LIB\RTL.LIB|xhelp ACBP=A9
 0002:00005C90 00000004 C=DATA    S=_DATA    G=DGROUP   M=C:\XHARBOUR\LIB\RTL.LIB|xsavescr ACBP=A9
 0002:00005C94 000011DC C=DATA    S=_DATA    G=DGROUP   M=C:\XHARBOUR\LIB\RTL.LIB|alert ACBP=A9
 0002:00006E70 00000834 C=DATA    S=_DATA    G=DGROUP   M=C:\XHARBOUR\LIB\RTL.LIB|color53 ACBP=A9
 0002:000076A4 00000E74 C=DATA    S=_DATA    G=DGROUP   M=C:\XHARBOUR\LIB\RTL.LIB|cstr ACBP=A9
 0002:00008518 00001C94 C=DATA    S=_DATA    G=DGROUP   M=C:\XHARBOUR\LIB\RTL.LIB|errorsys ACBP=A9
 0002:0000A1AC 00000118 C=DATA    S=_DATA    G=DGROUP   M=C:\XHARBOUR\LIB\RTL.LIB|getlist ACBP=A9
 0002:0000A2C4 00000F4C C=DATA    S=_DATA    G=DGROUP   M=C:\XHARBOUR\LIB\RTL.LIB|getsys ACBP=A9
 0002:0000B210 000000D8 C=DATA    S=_DATA    G=DGROUP   M=C:\XHARBOUR\LIB\RTL.LIB|memvarbl ACBP=A9
 0002:0000B2E8 00000AFC C=DATA    S=_DATA    G=DGROUP   M=C:\XHARBOUR\LIB\RTL.LIB|mssgline ACBP=A9
 0002:0000BDE4 0000118C C=DATA    S=_DATA    G=DGROUP   M=C:\XHARBOUR\LIB\RTL.LIB|objfunc ACBP=A9
 0002:0000CF70 00002160 C=DATA    S=_DATA    G=DGROUP   M=C:\XHARBOUR\LIB\RTL.LIB|tclass ACBP=A9
 0002:0000F0D0 00000508 C=DATA    S=_DATA    G=DGROUP   M=C:\XHARBOUR\LIB\RTL.LIB|terror ACBP=A9
 0002:0000F5D8 000050B4 C=DATA    S=_DATA    G=DGROUP   M=C:\XHARBOUR\LIB\RTL.LIB|tget ACBP=A9
 0002:0001468C 000003AC C=DATA    S=_DATA    G=DGROUP   M=C:\XHARBOUR\LIB\RTL.LIB|tgetint ACBP=A9
 0002:00014A38 00003CD8 C=DATA    S=_DATA    G=DGROUP   M=C:\XHARBOUR\LIB\RTL.LIB|tgetlist ACBP=A9
 0002:00018710 00000774 C=DATA    S=_DATA    G=DGROUP   M=C:\XHARBOUR\LIB\RTL.LIB|tobject ACBP=A9
 0002:00018E84 00000410 C=DATA    S=_DATA    G=DGROUP   M=C:\XHARBOUR\LIB\RTL.LIB|traceprg ACBP=A9
 0002:00019294 0000067C C=DATA    S=_DATA    G=DGROUP   M=C:\XHARBOUR\LIB\RDD.LIB|dbcmd ACBP=A9
 0002:00019910 00000054 C=DATA    S=_DATA    G=DGROUP   M=C:\XHARBOUR\LIB\RDD.LIB|workarea ACBP=A9
 0002:00019964 000001F8 C=DATA    S=_DATA    G=DGROUP   M=C:\XHARBOUR\LIB\RDD.LIB|dbf1 ACBP=A9
 0002:00019B5C 000001CC C=DATA    S=_DATA    G=DGROUP   M=C:\XHARBOUR\LIB\RDD.LIB|delim1 ACBP=A9
 0002:00019D28 000001C8 C=DATA    S=_DATA    G=DGROUP   M=C:\XHARBOUR\LIB\RDD.LIB|sdf1 ACBP=A9
 0002:00019EF0 0000007C C=DATA    S=_DATA    G=DGROUP   M=C:\XHARBOUR\LIB\RDD.LIB|dbf0 ACBP=A9
 0002:00019F6C 00000088 C=DATA    S=_DATA    G=DGROUP   M=C:\XHARBOUR\LIB\RDD.LIB|delim0 ACBP=A9
 0002:00019FF4 000000A0 C=DATA    S=_DATA    G=DGROUP   M=C:\XHARBOUR\LIB\RDD.LIB|rddsys ACBP=A9
 0002:0001A094 00000080 C=DATA    S=_DATA    G=DGROUP   M=C:\XHARBOUR\LIB\RDD.LIB|sdf0 ACBP=A9
 0002:0001A114 000028A0 C=DATA    S=_DATA    G=DGROUP   M=C:\XHARBOUR\LIB\MACRO.LIB|macroy ACBP=A9
 0002:0001C9B4 0000003E C=DATA    S=_DATA    G=DGROUP   M=C:\XHARBOUR\LIB\MACRO.LIB|macroa ACBP=A9
 0002:0001C9F4 00000158 C=DATA    S=_DATA    G=DGROUP   M=C:\XHARBOUR\LIB\MACRO.LIB|macrob ACBP=A9
 0002:0001CB4C 00000C74 C=DATA    S=_DATA    G=DGROUP   M=C:\XHARBOUR\LIB\MACRO.LIB|macroslx ACBP=A9
 0002:0001D7C0 00000008 C=DATA    S=_DATA    G=DGROUP   M=C:\XHARBOUR\LIB\COMMON.LIB|hbfsapi ACBP=A9
 0002:0001D7C8 00000088 C=DATA    S=_DATA    G=DGROUP   M=C:\XHARBOUR\LIB\COMMON.LIB|hbstr ACBP=A9
 0002:0001D850 000000C0 C=DATA    S=_DATA    G=DGROUP   M=C:\XHARBOUR\LIB\COMMON.LIB|hbtrace ACBP=A9
 0002:0001D910 00000FB0 C=DATA    S=_DATA    G=DGROUP   M=C:\XHARBOUR\LIB\COMMON.LIB|hbver ACBP=A9
 0002:0001E8C0 00000178 C=DATA    S=_DATA    G=DGROUP   M=C:\XHARBOUR\LIB\COMMON.LIB|expropt1 ACBP=A9
 0002:0001EA38 00000254 C=DATA    S=_DATA    G=DGROUP   M=C:\XHARBOUR\LIB\COMMON.LIB|reserved ACBP=A9
 0002:0001EC8C 00000444 C=DATA    S=_DATA    G=DGROUP   M=C:\XHARBOUR\LIB\DBFNTX.LIB|dbfntx1 ACBP=A9
 0002:0001F0D0 00000090 C=DATA    S=_DATA    G=DGROUP   M=C:\XHARBOUR\LIB\DBFNTX.LIB|dbfntx0 ACBP=A9
 0002:0001F160 000041A0 C=DATA    S=_DATA    G=DGROUP   M=C:\XHARBOUR\LIB\BCC640.LIB|files ACBP=A9
 0002:00023300 00000AF4 C=DATA    S=_DATA    G=DGROUP   M=C:\XHARBOUR\LIB\BCC640.LIB|files2 ACBP=A9
 0002:00023DF4 000001E0 C=DATA    S=_DATA    G=DGROUP   M=C:\XHARBOUR\LIB\DBFDBT.LIB|dbfdbt1 ACBP=A9
 0002:00023FD4 00000090 C=DATA    S=_DATA    G=DGROUP   M=C:\XHARBOUR\LIB\DBFDBT.LIB|dbfdbt0 ACBP=A9
 0002:00024064 00000DCC C=DATA    S=_DATA    G=DGROUP   M=C:\HELIO\SIACHB\LIB\GTWVW.LIB|gtwvw ACBP=A9
 0002:00024E30 00000004 C=DATA    S=_DATA    G=DGROUP   M=C:\BORLAND\BCC55\LIB\CW32.LIB|virtmem ACBP=A9
 0002:00024E34 00000098 C=DATA    S=_DATA    G=DGROUP   M=C:\BORLAND\BCC55\LIB\CW32.LIB|hrdir_b ACBP=A9
 0002:00024ECC 00000020 C=DATA    S=_DATA    G=DGROUP   M=C:\BORLAND\BCC55\LIB\CW32.LIB|hrdir_s ACBP=A9
 0002:00024EEC 00000040 C=DATA    S=_DATA    G=DGROUP   M=C:\BORLAND\BCC55\LIB\CW32.LIB|heap ACBP=A9
 0002:00024F2C 00000004 C=DATA    S=_DATA    G=DGROUP   M=C:\BORLAND\BCC55\LIB\CW32.LIB|xx_xpf ACBP=A9
 0002:00024F30 00000330 C=DATA    S=_DATA    G=DGROUP   M=C:\BORLAND\BCC55\LIB\CW32.LIB|xxtype ACBP=A9
 0002:00025250 0000003C C=DATA    S=_DATA    G=DGROUP   M=C:\BORLAND\BCC55\LIB\CW32.LIB|xxut ACBP=A9
 0002:0002528C 000000E4 C=DATA    S=_DATA    G=DGROUP   M=C:\BORLAND\BCC55\LIB\CW32.LIB|xxv ACBP=A9
 0002:00025370 00000014 C=DATA    S=_DATA    G=DGROUP   M=C:\BORLAND\BCC55\LIB\CW32.LIB|except ACBP=A9
 0002:00025384 0000000C C=DATA    S=_DATA    G=DGROUP   M=C:\BORLAND\BCC55\LIB\CW32.LIB|__dup2 ACBP=A9
 0002:00025390 00000004 C=DATA    S=_DATA    G=DGROUP   M=C:\BORLAND\BCC55\LIB\CW32.LIB|_cfinfo ACBP=A9
 0002:00025394 00000004 C=DATA    S=_DATA    G=DGROUP   M=C:\BORLAND\BCC55\LIB\CW32.LIB|_umask ACBP=A9
 0002:00025398 00000004 C=DATA    S=_DATA    G=DGROUP   M=C:\BORLAND\BCC55\LIB\CW32.LIB|cfinfo ACBP=A9
 0002:0002539C 00000004 C=DATA    S=_DATA    G=DGROUP   M=C:\BORLAND\BCC55\LIB\CW32.LIB|fmode ACBP=A9
 0002:000253A0 00000004 C=DATA    S=_DATA    G=DGROUP   M=C:\BORLAND\BCC55\LIB\CW32.LIB|fmodeptr ACBP=A9
 0002:000253A4 0000012B C=DATA    S=_DATA    G=DGROUP   M=C:\BORLAND\BCC55\LIB\CW32.LIB|ioerror ACBP=A9
 0002:000254D0 0000000C C=DATA    S=_DATA    G=DGROUP   M=C:\BORLAND\BCC55\LIB\CW32.LIB|mkname ACBP=A9
 0002:000254DC 0000047C C=DATA    S=_DATA    G=DGROUP   M=C:\BORLAND\BCC55\LIB\CW32.LIB|perror ACBP=A9
 0002:00025958 00000076 C=DATA    S=_DATA    G=DGROUP   M=C:\BORLAND\BCC55\LIB\CW32.LIB|vprinter ACBP=A9
 0002:000259D0 00000202 C=DATA    S=_DATA    G=DGROUP   M=C:\BORLAND\BCC55\LIB\CW32.LIB|bigctype ACBP=A9
 0002:00025BD4 00000100 C=DATA    S=_DATA    G=DGROUP   M=C:\BORLAND\BCC55\LIB\CW32.LIB|clower ACBP=A9
 0002:00025CD4 00000100 C=DATA    S=_DATA    G=DGROUP   M=C:\BORLAND\BCC55\LIB\CW32.LIB|cupper ACBP=A9
 0002:00025DD4 00000260 C=DATA    S=_DATA    G=DGROUP   M=C:\BORLAND\BCC55\LIB\CW32.LIB|clocale ACBP=A9
 0002:00026034 00000010 C=DATA    S=_DATA    G=DGROUP   M=C:\BORLAND\BCC55\LIB\CW32.LIB|_matherr ACBP=A9
 0002:00026044 000000C0 C=DATA    S=_DATA    G=DGROUP   M=C:\BORLAND\BCC55\LIB\CW32.LIB|_pow10 ACBP=A9
 0002:00026104 00000068 C=DATA    S=_DATA    G=DGROUP   M=C:\BORLAND\BCC55\LIB\CW32.LIB|cvtfak ACBP=A9
 0002:0002616C 00000068 C=DATA    S=_DATA    G=DGROUP   M=C:\BORLAND\BCC55\LIB\CW32.LIB|cvtfakw ACBP=A9
 0002:000261D4 00000004 C=DATA    S=_DATA    G=DGROUP   M=C:\BORLAND\BCC55\LIB\CW32.LIB|deflt87 ACBP=A9
 0002:000261D8 0000000C C=DATA    S=_DATA    G=DGROUP   M=C:\BORLAND\BCC55\LIB\CW32.LIB|exp ACBP=A9
 0002:000261E4 00000012 C=DATA    S=_DATA    G=DGROUP   M=C:\BORLAND\BCC55\LIB\CW32.LIB|f87exp ACBP=A9
 0002:000261F8 00000016 C=DATA    S=_DATA    G=DGROUP   M=C:\BORLAND\BCC55\LIB\CW32.LIB|f87log ACBP=A9
 0002:00026210 0000007C C=DATA    S=_DATA    G=DGROUP   M=C:\BORLAND\BCC55\LIB\CW32.LIB|hugeval ACBP=A9
 0002:0002628C 00000008 C=DATA    S=_DATA    G=DGROUP   M=C:\BORLAND\BCC55\LIB\CW32.LIB|initcvt ACBP=A9
 0002:00026294 0000000C C=DATA    S=_DATA    G=DGROUP   M=C:\BORLAND\BCC55\LIB\CW32.LIB|log ACBP=A9
 0002:000262A0 00000008 C=DATA    S=_DATA    G=DGROUP   M=C:\BORLAND\BCC55\LIB\CW32.LIB|mathptr ACBP=A9
 0002:000262A8 00000044 C=DATA    S=_DATA    G=DGROUP   M=C:\BORLAND\BCC55\LIB\CW32.LIB|mathwhy ACBP=A9
 0002:000262EC 0000001C C=DATA    S=_DATA    G=DGROUP   M=C:\BORLAND\BCC55\LIB\CW32.LIB|pow ACBP=A9
 0002:00026308 00000008 C=DATA    S=_DATA    G=DGROUP   M=C:\BORLAND\BCC55\LIB\CW32.LIB|rand ACBP=A9
 0002:00026310 00000014 C=DATA    S=_DATA    G=DGROUP   M=C:\BORLAND\BCC55\LIB\CW32.LIB|realcvt ACBP=A9
 0002:00026324 00000028 C=DATA    S=_DATA    G=DGROUP   M=C:\BORLAND\BCC55\LIB\CW32.LIB|realcvtw ACBP=A9
 0002:0002634C 00000028 C=DATA    S=_DATA    G=DGROUP   M=C:\BORLAND\BCC55\LIB\CW32.LIB|scantod ACBP=A9
 0002:00026374 00000028 C=DATA    S=_DATA    G=DGROUP   M=C:\BORLAND\BCC55\LIB\CW32.LIB|scanwtod ACBP=A9
 0002:0002639C 00000010 C=DATA    S=_DATA    G=DGROUP   M=C:\BORLAND\BCC55\LIB\CW32.LIB|sqrt ACBP=A9
 0002:000263AC 00000048 C=DATA    S=_DATA    G=DGROUP   M=C:\BORLAND\BCC55\LIB\CW32.LIB|mbctype ACBP=A9
 0002:000263F4 00000024 C=DATA    S=_DATA    G=DGROUP   M=C:\BORLAND\BCC55\LIB\CW32.LIB|assert ACBP=A9
 0002:00026418 00000024 C=DATA    S=_DATA    G=DGROUP   M=C:\BORLAND\BCC55\LIB\CW32.LIB|ermsghlp ACBP=A9
 0002:0002643C 00000004 C=DATA    S=_DATA    G=DGROUP   M=C:\BORLAND\BCC55\LIB\CW32.LIB|errno ACBP=A9
 0002:00026440 00000010 C=DATA    S=_DATA    G=DGROUP   M=C:\BORLAND\BCC55\LIB\CW32.LIB|errormsg ACBP=A9
 0002:00026450 00000028 C=DATA    S=_DATA    G=DGROUP   M=C:\BORLAND\BCC55\LIB\CW32.LIB|platform ACBP=A9
 0002:00026478 00000020 C=DATA    S=_DATA    G=DGROUP   M=C:\BORLAND\BCC55\LIB\CW32.LIB|abort ACBP=A9
 0002:00026498 00000004 C=DATA    S=_DATA    G=DGROUP   M=C:\BORLAND\BCC55\LIB\CW32.LIB|patexit ACBP=A9
 0002:0002649C 0000000C C=DATA    S=_DATA    G=DGROUP   M=C:\BORLAND\BCC55\LIB\CW32.LIB|exit ACBP=A9
 0002:000264A8 00000008 C=DATA    S=_DATA    G=DGROUP   M=C:\BORLAND\BCC55\LIB\CW32.LIB|saptr ACBP=A9
 0002:000264B0 00000008 C=DATA    S=_DATA    G=DGROUP   M=C:\BORLAND\BCC55\LIB\CW32.LIB|wsaptr ACBP=A9
 0002:000264B8 00000054 C=DATA    S=_DATA    G=DGROUP   M=C:\BORLAND\BCC55\LIB\CW32.LIB|setargv ACBP=A9
 0002:0002650C 00000028 C=DATA    S=_DATA    G=DGROUP   M=C:\BORLAND\BCC55\LIB\CW32.LIB|hsargv ACBP=A9
 0002:00026534 00000024 C=DATA    S=_DATA    G=DGROUP   M=C:\BORLAND\BCC55\LIB\CW32.LIB|whsargv ACBP=A9
 0002:00026558 00000004 C=DATA    S=_DATA    G=DGROUP   M=C:\BORLAND\BCC55\LIB\CW32.LIB|wildptr ACBP=A9
 0002:0002655C 00000004 C=DATA    S=_DATA    G=DGROUP   M=C:\BORLAND\BCC55\LIB\CW32.LIB|wwildptr ACBP=A9
 0002:00026560 00000020 C=DATA    S=_DATA    G=DGROUP   M=C:\BORLAND\BCC55\LIB\CW32.LIB|setargv0 ACBP=A9
 0002:00026580 00000054 C=DATA    S=_DATA    G=DGROUP   M=C:\BORLAND\BCC55\LIB\CW32.LIB|setenvp ACBP=A9
 0002:000265D4 0000005E C=DATA    S=_DATA    G=DGROUP   M=C:\BORLAND\BCC55\LIB\CW32.LIB|signal ACBP=A9
 0002:00026634 00000004 C=DATA    S=_DATA    G=DGROUP   M=C:\BORLAND\BCC55\LIB\CW32.LIB|globals ACBP=A9
 0002:00026638 00000004 C=DATA    S=_DATA    G=DGROUP   M=C:\BORLAND\BCC55\LIB\CW32.LIB|initexit ACBP=A9
 0002:0002663C 000001C4 C=DATA    S=_DATA    G=DGROUP   M=C:\BORLAND\BCC55\LIB\CW32.LIB|timedata ACBP=A9
 0002:00026800 00000008 C=DATA    S=_DATA    G=DGROUP   M=C:\BORLAND\BCC55\LIB\CW32.LIB|tzdata ACBP=A9
 0002:00026808 00000010 C=DATA    S=_DATA    G=DGROUP   M=C:\BORLAND\BCC55\LIB\CW32.LIB|tzset ACBP=A9
 0002:00026818 00000004 C=DATA    S=_DATA    G=DGROUP   M=C:\BORLAND\BCC55\LIB\CW32.LIB|clock ACBP=A9
 0002:0002681C 0000088C C=DATA    S=_DATA    G=DGROUP   M=C:\BORLAND\BCC55\LIB\CW32.LIB|xx ACBP=A9
 0002:000270A8 00000020 C=DATA    S=_DATA    G=DGROUP   M=C:\BORLAND\BCC55\LIB\IMPORT32.LIB|inetguid ACBP=A9
 0003:00000000 00000004 C=BSS     S=_BSS     G=DGROUP   M=C:\XHARBOUR\LIB\VM.LIB|cmdarg ACBP=A9
 0003:00000004 00000008 C=BSS     S=_BSS     G=DGROUP   M=C:\XHARBOUR\LIB\VM.LIB|errorapi ACBP=A9
 0003:0000000C 00000048 C=BSS     S=_BSS     G=DGROUP   M=C:\XHARBOUR\LIB\VM.LIB|estack ACBP=A9
 0003:00000054 00000018 C=BSS     S=_BSS     G=DGROUP   M=C:\XHARBOUR\LIB\VM.LIB|extend ACBP=A9
 0003:0000006C 00000201 C=BSS     S=_BSS     G=DGROUP   M=C:\XHARBOUR\LIB\VM.LIB|fm ACBP=A9
 0003:00000270 00000189 C=BSS     S=_BSS     G=DGROUP   M=C:\XHARBOUR\LIB\VM.LIB|hbi18n ACBP=A9
 0003:000003FC 000009D8 C=BSS     S=_BSS     G=DGROUP   M=C:\XHARBOUR\LIB\VM.LIB|hvm ACBP=A9
 0003:00000DD4 00000100 C=BSS     S=_BSS     G=DGROUP   M=C:\XHARBOUR\LIB\VM.LIB|mainwin ACBP=A9
 0003:00000ED4 00000100 C=BSS     S=_BSS     G=DGROUP   M=C:\XHARBOUR\LIB\RTL.LIB|cdpapi ACBP=A9
 0003:00000FD4 00000018 C=BSS     S=_BSS     G=DGROUP   M=C:\XHARBOUR\LIB\RTL.LIB|console ACBP=A9
 0003:00000FEC 00000208 C=BSS     S=_BSS     G=DGROUP   M=C:\XHARBOUR\LIB\RTL.LIB|filesys ACBP=A9
 0003:000011F4 00000034 C=BSS     S=_BSS     G=DGROUP   M=C:\XHARBOUR\LIB\RTL.LIB|gtapi ACBP=A9
 0003:00001228 00000014 C=BSS     S=_BSS     G=DGROUP   M=C:\XHARBOUR\LIB\RTL.LIB|inkey ACBP=A9
 0003:0000123C 00000100 C=BSS     S=_BSS     G=DGROUP   M=C:\XHARBOUR\LIB\RTL.LIB|langapi ACBP=A9
 0003:0000133C 0000056C C=BSS     S=_BSS     G=DGROUP   M=C:\XHARBOUR\LIB\RTL.LIB|set ACBP=A9
 0003:000018A8 00000004 C=BSS     S=_BSS     G=DGROUP   M=C:\XHARBOUR\LIB\RTL.LIB|setkey ACBP=A9
 0003:000018AC 00000004 C=BSS     S=_BSS     G=DGROUP   M=C:\XHARBOUR\LIB\RTL.LIB|xsavescr ACBP=A9
 0003:000018B0 00000004 C=BSS     S=_BSS     G=DGROUP   M=C:\XHARBOUR\LIB\RTL.LIB|errorsys ACBP=A9
 0003:000018B4 0000017C C=BSS     S=_BSS     G=DGROUP   M=C:\XHARBOUR\LIB\RDD.LIB|dbf1 ACBP=A9
 0003:00001A30 0000017C C=BSS     S=_BSS     G=DGROUP   M=C:\XHARBOUR\LIB\RDD.LIB|delim1 ACBP=A9
 0003:00001BAC 0000017C C=BSS     S=_BSS     G=DGROUP   M=C:\XHARBOUR\LIB\RDD.LIB|sdf1 ACBP=A9
 0003:00001D28 00000040 C=BSS     S=_BSS     G=DGROUP   M=C:\XHARBOUR\LIB\MACRO.LIB|macroy ACBP=A9
 0003:00001D68 0000C6DC C=BSS     S=_BSS     G=DGROUP   M=C:\XHARBOUR\LIB\MACRO.LIB|macroslx ACBP=A9
 0003:0000E444 0000017C C=BSS     S=_BSS     G=DGROUP   M=C:\XHARBOUR\LIB\DBFNTX.LIB|dbfntx1 ACBP=A9
 0003:0000E5C0 000015E0 C=BSS     S=_BSS     G=DGROUP   M=C:\XHARBOUR\LIB\BCC640.LIB|files2 ACBP=A9
 0003:0000FBA0 0000017C C=BSS     S=_BSS     G=DGROUP   M=C:\XHARBOUR\LIB\DBFDBT.LIB|dbfdbt1 ACBP=A9
 0003:0000FD1C 000007D8 C=BSS     S=_BSS     G=DGROUP   M=C:\HELIO\SIACHB\LIB\GTWVW.LIB|gtwvw ACBP=A9
 0003:000104F4 00000018 C=BSS     S=_BSS     G=DGROUP   M=C:\BORLAND\BCC55\LIB\CW32.LIB|hrdir_b ACBP=A9
 0003:0001050C 00000004 C=BSS     S=_BSS     G=DGROUP   M=C:\BORLAND\BCC55\LIB\CW32.LIB|strtok ACBP=A9
 0003:00010510 00000410 C=BSS     S=_BSS     G=DGROUP   M=C:\BORLAND\BCC55\LIB\CW32.LIB|xxtype ACBP=A9
 0003:00010920 00000008 C=BSS     S=_BSS     G=DGROUP   M=C:\BORLAND\BCC55\LIB\CW32.LIB|xxv ACBP=A9
 0003:00010928 00000008 C=BSS     S=_BSS     G=DGROUP   M=C:\BORLAND\BCC55\LIB\CW32.LIB|except ACBP=A9
 0003:00010930 00000004 C=BSS     S=_BSS     G=DGROUP   M=C:\BORLAND\BCC55\LIB\CW32.LIB|ioerror ACBP=A9
 0003:00010934 00000001 C=BSS     S=_BSS     G=DGROUP   M=C:\BORLAND\BCC55\LIB\CW32.LIB|lgetc ACBP=A9
 0003:00010938 0000000F C=BSS     S=_BSS     G=DGROUP   M=C:\BORLAND\BCC55\LIB\CW32.LIB|mkname ACBP=A9
 0003:00010948 00000108 C=BSS     S=_BSS     G=DGROUP   M=C:\BORLAND\BCC55\LIB\CW32.LIB|mbctype ACBP=A9
 0003:00010A50 00000100 C=BSS     S=_BSS     G=DGROUP   M=C:\BORLAND\BCC55\LIB\CW32.LIB|assert ACBP=A9
 0003:00010B50 00000019 C=BSS     S=_BSS     G=DGROUP   M=C:\BORLAND\BCC55\LIB\CW32.LIB|ermsghlp ACBP=A9
 0003:00010B6C 00000004 C=BSS     S=_BSS     G=DGROUP   M=C:\BORLAND\BCC55\LIB\CW32.LIB|platform ACBP=A9
 0003:00010B70 00000008 C=BSS     S=_BSS     G=DGROUP   M=C:\BORLAND\BCC55\LIB\CW32.LIB|qsort ACBP=A9
 0003:00010B78 0000000C C=BSS     S=_BSS     G=DGROUP   M=C:\BORLAND\BCC55\LIB\CW32.LIB|setargv ACBP=A9
 0003:00010B84 00000004 C=BSS     S=_BSS     G=DGROUP   M=C:\BORLAND\BCC55\LIB\CW32.LIB|hsargv ACBP=A9
 0003:00010B88 00000004 C=BSS     S=_BSS     G=DGROUP   M=C:\BORLAND\BCC55\LIB\CW32.LIB|whsargv ACBP=A9
 0003:00010B8C 00000010 C=BSS     S=_BSS     G=DGROUP   M=C:\BORLAND\BCC55\LIB\CW32.LIB|setenvp ACBP=A9
 0003:00010B9C 00000040 C=BSS     S=_BSS     G=DGROUP   M=C:\BORLAND\BCC55\LIB\CW32.LIB|globals ACBP=A9
 0003:00010BDC 00000024 C=BSS     S=_BSS     G=DGROUP   M=C:\BORLAND\BCC55\LIB\CW32.LIB|gmtime ACBP=A9
 0003:00010C00 00000008 C=BSS     S=_BSS     G=DGROUP   M=C:\BORLAND\BCC55\LIB\CW32.LIB|tzset ACBP=A9
 0003:00010C08 00000010 C=BSS     S=_BSS     G=DGROUP   M=C:\BORLAND\BCC55\LIB\CW32.LIB|xx ACBP=A9
 0004:00000000 0000009C C=TLS     S=_TLS     G=DGROUP   M=C:\BORLAND\BCC55\LIB\CW32.LIB|xxv ACBP=A9

  Address         Publics by Name

 0001:00082500      @$bdele$qpv
 0001:00082510      @$bdla$qpv
 0003:0001050C      @B1114_1
 0003:00010510      @B1164_2
 0003:00010920      @B1168_2
 0003:00010928      @B1174_2
 0003:00000000      @B135_2
 0003:00010930      @B1435_2
 0003:00010934      @B1441_1
 0003:00010938      @B1459_2
 0003:00000004      @B147_2
 0003:0000000C      @B149_2
 0003:00000054      @B155_2
 0003:0000006C      @B157_2
 0003:00000270      @B163_2
 0003:000003FC      @B165_2
 0003:00000DD4      @B183_2
 0003:00010948      @B2061_2
 0003:00000ED4      @B217_2
 0003:00010A50      @B2197_2
 0003:00010B50      @B2213_2
 0003:00010B6C      @B2225_2
 0003:00010B70      @B2229_1
 0003:00000FD4      @B223_2
 0003:00010B78      @B2306_2
 0003:00010B84      @B2308_2
 0003:00010B88      @B2310_2
 0003:00010B8C      @B2381_2
 0003:00010B9C      @B2403_1
 0003:00010BDC      @B2428_1
 0003:00010C00      @B2442_2
 0003:00010C08      @B2498_2
 0003:00000FEC      @B253_2
 0003:000011F4      @B271_2
 0003:00001228      @B311_2
 0003:0000123C      @B317_2
 0003:0000133C      @B391_2
 0003:000018A8      @B401_1
 0003:000018AC      @B465_2
 0003:000018B0      @B505_2
 0003:000018B4      @B619_2
 0003:00001A30      @B623_2
 0003:00001BAC      @B625_2
 0003:00001D28      @B651_2
 0003:00001D68      @B659_2
 0003:0000E444      @B785_2
 0003:0000E5C0      @B793_1
 0003:0000FBA0      @B795_2
 0003:0000FD1C      @B803_2
 0003:000104F4      @B851_2
 0001:00083430      @C1032_0
 0001:00083450      @C1036_0
 0001:00083474      @C1040_0
 0001:000834C0      @C1042_0
 0001:0008354C      @C1044_0
 0001:00083564      @C1058_0
 0001:000835A0      @C1060_0
 0001:000835F4      @C1066_0
 0001:00083650      @C1068_0
 0001:000836C0      @C1070_0
 0001:000836E8      @C1084_0
 0001:00083754      @C1090_0
 0001:00083788      @C1096_0
 0001:000837D8      @C1102_0
 0001:00083804      @C1104_0
 0001:00083830      @C1112_0
 0001:00083884      @C1114_0
 0001:000838EC      @C1116_0
 0001:00083924      @C1118_0
 0001:0008393C      @C1120_0
 0001:0008397C      @C1160_0
 0001:000839EC      @C1164_0
 0001:00083B43      @C1164_3
 0001:000841E0      @C1168_0
 0001:000841E0      @C1168_4
 0001:0008432C      @C1170_0
 0001:00084338      @C1174_0
 0001:00084474      @C1174_3
 0001:0008448C      @C1174_4
 0001:000844B4      @C1178_0
 0001:000844FC      @C1180_0
 0001:00084520      @C1184_0
 0001:0008455C      @C1186_0
 0001:000845BC      @C1188_0
 0001:000845D0      @C1190_0
 0001:000846C0      @C1192_0
 0001:00084748      @C1196_0
 0001:00084790      @C1198_0
 0001:00084808      @C1200_0
 0001:00084A04      @C1202_0
 0001:00084BA0      @C1208_0
 0001:00084CBC      @C1210_0
 0001:00084CD0      @C1228_0
 0001:00084D08      @C1252_0
 0001:000001B0      @C125_0
 0001:00001764      @C127_0
 0001:00084D6C      @C1284_0
 0001:00084DD0      @C1286_0
 0001:00084DD8      @C1288_0
 0001:00084E58      @C1294_0
 0001:00004C54      @C129_0
 0001:00084EF4      @C1302_0
 0001:000051F4      @C131_0
 0001:00084EFC      @C1335_0
 0001:00084F04      @C1339_0
 0001:0000520C      @C133_0
 0001:00084F0C      @C1341_0
 0001:00084F9C      @C1349_0
 0001:0000AA88      @C135_0
 0001:0000AFD8      @C135_3
 0001:0008501C      @C1369_0
 0001:00085078      @C1373_0
 0001:0008509C      @C1378_0
 0001:0000AFF0      @C137_0
 0001:0008527C      @C1380_0
 0001:000852A0      @C1386_0
 0001:0008537C      @C1404_0
 0001:000854BC      @C1435_0
 0001:00085534      @C1439_0
 0001:0008553C      @C1441_0
 0001:000856DC      @C1449_0
 0001:000857EC      @C1459_0
 0001:0000B314      @C145_0
 0001:00085880      @C1469_0
 0001:0000BA24      @C147_0
 0001:0000D0DC      @C149_0
 0001:000858A4      @C1511_0
 0001:00085910      @C1513_0
 0001:00085960      @C1515_0
 0001:0000D924      @C151_0
 0001:00085A60      @C1522_0
 0001:00085AD8      @C1534_0
 0001:00085B94      @C1534_1
 0001:00085BF0      @C1550_0
 0001:00085C0C      @C1554_0
 0001:0000E4F8      @C155_0
 0001:00085C30      @C1562_0
 0001:00010068      @C157_0
 0001:00010B78      @C159_0
 0001:00011250      @C161_0
 0001:0008661C      @C1638_0
 0001:00013CAC      @C163_0
 0001:0008664C      @C1640_0
 0001:00086674      @C1654_0
 0001:00014C78      @C165_0
 0001:000866C8      @C1661_0
 0001:000867CC      @C1663_0
 0001:000868D0      @C1665_0
 0001:00086914      @C1667_0
 0001:00022E74      @C169_0
 0001:0008696C      @C1705_0
 0001:000869C0      @C1707_0
 0001:00086A14      @C1709_0
 0001:00086A68      @C1711_0
 0001:00086ABC      @C1713_0
 0001:00022E7C      @C171_0
 0001:00022E94      @C173_0
 0001:000245C8      @C175_0
 0001:00086F8C      @C1763_0
 0001:0008718C      @C1777_0
 0001:00024EC8      @C177_0
 0001:000871AC      @C1787_0
 0001:000871F4      @C1797_0
 0001:000872A4      @C1803_0
 0001:0008742C      @C1826_0
 0001:000874A4      @C1834_0
 0001:000874C0      @C1838_0
 0001:000268D4      @C183_0
 0001:000874D4      @C1852_0
 0001:00087504      @C1854_0
 0001:0008751C      @C1858_0
 0001:000269F4      @C185_0
 0001:00087534      @C1860_0
 0001:0008754C      @C1868_0
 0001:000875B8      @C1876_0
 0001:00087688      @C1878_0
 0001:000876D0      @C1896_0
 0001:000287E8      @C189_0
 0001:00087720      @C1900_0
 0001:00087738      @C1906_0
 0001:00087760      @C1908_0
 0001:00087790      @C1910_0
 0001:000877B4      @C1912_0
 0001:00028824      @C191_0
 0001:000877C8      @C1928_0
 0001:0008787C      @C1938_0
 0001:00087994      @C1940_0
 0001:00087A04      @C1948_0
 0001:00087A94      @C1956_0
 0001:00087B0C      @C1962_0
 0001:00087B3C      @C1964_0
 0001:00087B54      @C1970_0
 0001:00087B84      @C1978_0
 0001:00087D60      @C1986_0
 0001:00087D88      @C1988_0
 0001:00087DB8      @C1990_0
 0001:00087DD4      @C1990_2
 0001:00087E48      @C1992_0
 0001:00088144      @C1994_0
 0001:00088478      @C1999_0
 0001:00028D7C      @C199_0
 0001:00028D7C      @C199_2
 0001:00000000      @C1_0
 0001:000884A4      @C2001_0
 0001:00088988      @C2003_0
 0001:00088E68      @C2013_0
 0001:00028E54      @C201_0
 0001:00088EA4      @C2047_0
 0001:00089178      @C2049_0
 0001:0008946C      @C2061_0
 0001:00089598      @C2061_3
 0001:000895A8      @C2063_0
 0001:000895E8      @C2065_0
 0001:00028FF8      @C207_0
 0001:00089604      @C2083_0
 0001:000292C8      @C209_0
 0001:00089620      @C2121_0
 0001:00089674      @C2123_0
 0001:00089734      @C2145_0
 0001:0002985C      @C215_0
 0001:000299DC      @C217_0
 0001:0002A748      @C217_3
 0001:0008978C      @C2197_0
 0001:0002A754      @C219_0
 0001:00089834      @C2213_0
 0001:000898EC      @C2217_0
 0001:0002A804      @C221_0
 0001:00089A88      @C2225_0
 0001:00089A88      @C2225_3
 0001:00089B14      @C2229_0
 0001:0002A8D4      @C223_0
 0001:00089D4C      @C2244_0
 0001:0002B2DC      @C227_0
 0001:00089D70      @C2282_0
 0001:00089E18      @C2284_0
 0001:00089E70      @C2290_0
 0001:00089E8C      @C2292_0
 0001:00089EA0      @C2294_0
 0001:0002B438      @C229_0
 0001:00089EB4      @C2300_0
 0001:00089EDC      @C2306_0
 0001:00089EDC      @C2306_3
 0001:00089F64      @C2306_4
 0001:0008A048      @C2308_0
 0001:0008A230      @C2310_0
 0001:0002BC24      @C231_0
 0001:0008A458      @C2367_0
 0001:0008A458      @C2367_2
 0001:0008A490      @C2367_3
 0001:0008A4A0      @C2381_0
 0001:0008A620      @C2381_3
 0001:0008A4A0      @C2381_4
 0001:0008A640      @C2385_0
 0001:0008A938      @C2404_0
 0001:0008AA90      @C2406_0
 0001:0008AC34      @C2420_0
 0001:0008AC84      @C2428_0
 0001:0008AE30      @C2438_0
 0001:0008B0D4      @C2440_0
 0001:0008B0D4      @C2440_2
 0001:0008B0DC      @C2442_0
 0001:0008B2A4      @C2444_0
 0001:0008B2AC      @C2448_0
 0001:0008B2B8      @C2448_2
 0001:0008B2C4      @C2454_0
 0001:0002C2CC      @C245_0
 0001:0008B364      @C2470_0
 0001:0002C4E4      @C247_0
 0001:0008B3B4      @C2498_0
 0001:0008B3B4      @C2498_3
 0001:0002C61C      @C249_0
 0001:0002C6B8      @C253_0
 0001:0002D9F0      @C255_0
 0001:0002DAA8      @C259_0
 0001:0002DBEC      @C261_0
 0001:0002E5B4      @C265_0
 0001:0002E6E8      @C269_0
 0001:0002E730      @C271_0
 0001:00032618      @C281_0
 0001:00032AC8      @C291_0
 0001:000332F8      @C293_0
 0001:00033700      @C299_0
 0001:00000150      @C2_0
 0001:00000150      @C2_2
 0001:000339C0      @C301_0
 0001:000341E0      @C309_0
 0001:00034654      @C311_0
 0001:00035024      @C313_0
 0001:00035460      @C317_0
 0001:000356E8      @C319_0
 0001:000357A8      @C321_0
 0001:0003582C      @C325_0
 0001:0003620C      @C327_0
 0001:000362FC      @C331_0
 0001:00036894      @C339_0
 0001:00036C8C      @C345_0
 0001:00036E18      @C357_0
 0001:00036F50      @C359_0
 0001:00037054      @C361_0
 0001:00037154      @C363_0
 0001:00037D50      @C373_0
 0001:0003DBA0      @C375_0
 0001:0003DCE0      @C379_0
 0001:0003DE14      @C385_0
 0001:0003DFC8      @C387_0
 0001:0003E0CC      @C389_0
 0001:0003E1F8      @C391_0
 0001:00040D6C      @C397_0
 0001:00040E7C      @C399_0
 0001:00040EE0      @C401_0
 0001:000414E8      @C403_0
 0001:00041574      @C405_0
 0001:000415A0      @C411_0
 0001:00041628      @C413_0
 0001:0004184C      @C415_0
 0001:00041A9C      @C419_0
 0001:00041D44      @C421_0
 0001:00041E84      @C423_0
 0001:00041F34      @C429_0
 0001:00042230      @C433_0
 0001:0004238C      @C435_0
 0001:000001A0      @C43_0
 0001:000001A4      @C43_2
 0001:000424F0      @C441_0
 0001:00042E38      @C443_0
 0001:00042F78      @C445_0
 0001:0004450C      @C447_0
 0001:000447F0      @C451_0
 0001:00044860      @C453_0
 0001:000448FC      @C457_0
 0001:00044CA0      @C459_0
 0001:00045028      @C459_2
 0001:00045040      @C461_0
 0001:0004508C      @C463_0
 0001:0004510C      @C465_0
 0001:000451EC      @C471_0
 0001:000451EC      @C471_2
 0001:0004527C      @C483_0
 0001:0004527C      @C483_2
 0001:000453E4      @C485_0
 0001:000453E4      @C485_2
 0001:0004545C      @C505_0
 0001:0004545C      @C505_3
 0001:00045658      @C509_0
 0001:00045658      @C509_2
 0001:000456D0      @C511_0
 0001:000456D0      @C511_2
 0001:00045910      @C527_0
 0001:00045910      @C527_2
 0001:00045940      @C531_0
 0001:00045940      @C531_2
 0001:00045A48      @C533_0
 0001:00045A48      @C533_2
 0001:00045C58      @C565_0
 0001:00045C58      @C565_2
 0001:00045FE8      @C569_0
 0001:00045FE8      @C569_2
 0001:00046030      @C573_0
 0001:00046030      @C573_2
 0001:0004643C      @C575_0
 0001:0004643C      @C575_2
 0001:0004649C      @C577_0
 0001:0004649C      @C577_2
 0001:00046740      @C583_0
 0001:00046740      @C583_2
 0001:00046818      @C587_0
 0001:00046818      @C587_2
 0001:00046860      @C615_0
 0001:0004D1D8      @C617_0
 0001:0004E39C      @C619_0
 0001:0004E39C      @C619_3
 0001:00052B74      @C623_0
 0001:00052B74      @C623_3
 0001:00052BFC      @C625_0
 0001:00052BFC      @C625_3
 0001:00052C84      @C627_0
 0001:00052C84      @C627_2
 0001:00052CCC      @C637_0
 0001:00053340      @C643_0
 0001:00053340      @C643_2
 0001:00053388      @C647_0
 0001:00053388      @C647_2
 0001:000533D0      @C649_0
 0001:000533D0      @C649_2
 0001:00053418      @C651_0
 0001:000572FC      @C653_0
 0001:0005760C      @C655_0
 0001:0005CD8C      @C657_0
 0001:0005D4C8      @C659_0
 0001:0005F0EC      @C673_0
 0001:0005F42C      @C675_0
 0001:0005F460      @C679_0
 0001:0005FFBC      @C681_0
 0001:000601E4      @C683_0
 0001:00061088      @C685_0
 0001:000618E0      @C687_0
 0001:00062B7C      @C689_0
 0001:00062BDC      @C785_0
 0001:00062BDC      @C785_3
 0001:0006974C      @C787_0
 0001:0006974C      @C787_2
 0001:00069794      @C791_0
 0001:00069A70      @C795_0
 0001:00069AEC      @C795_3
 0001:0006A5B4      @C797_0
 0001:0006A5B4      @C797_2
 0001:0006A5FC      @C803_0
 0001:000824D4      @C819_0
 0001:00082500      @C821_0
 0001:00082510      @C823_0
 0001:00082520      @C849_0
 0001:00082634      @C851_0
 0001:000826D4      @C857_0
 0001:000826F4      @C859_0
 0001:0008270C      @C861_0
 0001:000827A8      @C861_2
 0001:000827C4      @C863_0
 0001:000827C8      @C867_0
 0001:00083194      @C887_0
 0001:00083428      @C889_0
 0001:0008342C      @C893_0
 0002:00024F2C      @D1162_0
 0002:00024F30      @D1164_1
 0002:00025250      @D1166_1
 0002:0002528C      @D1168_1
 0002:00025370      @D1174_1
 0002:00025384      @D1190_1
 0002:00025390      @D1210_1
 0002:00025394      @D1264_1
 0002:00001540      @D127_1
 0002:00025398      @D1290_0
 0002:00001770      @D133_1
 0002:00001A74      @D135_1
 0002:0002539C      @D1371_0
 0002:000253A0      @D1373_1
 0002:000253A4      @D1435_1
 0002:000254D0      @D1459_1
 0002:00001B4C      @D145_1
 0002:000254DC      @D1467_1
 0002:00001B5C      @D147_1
 0002:00001D38      @D149_1
 0002:00001E78      @D151_1
 0002:00001E94      @D155_1
 0002:00025958      @D1562_1
 0002:00001E98      @D157_1
 0002:000021C8      @D159_1
 0002:000021E0      @D161_1
 0002:0000240C      @D163_1
 0002:000259D0      @D1642_0
 0002:00025BD4      @D1648_0
 0002:00025CD4      @D1652_0
 0002:000024A4      @D165_1
 0002:00025DD4      @D1671_0
 0002:00003314      @D171_1
 0002:0000387C      @D173_1
 0002:000038A0      @D175_1
 0002:00003948      @D177_1
 0002:00026034      @D1797_1
 0002:00026044      @D1803_1
 0002:0000396C      @D183_1
 0002:00026104      @D1858_1
 0002:00003970      @D185_1
 0002:0002616C      @D1860_1
 0002:000261D4      @D1862_0
 0002:000261D8      @D1868_1
 0002:000261E4      @D1876_1
 0002:000261F8      @D1878_1
 0002:00026210      @D1916_0
 0002:00003A3C      @D191_1
 0002:0002628C      @D1926_0
 0002:00026294      @D1940_1
 0002:000262A0      @D1964_1
 0002:000262A8      @D1968_0
 0002:000262EC      @D1978_1
 0002:00026308      @D1990_1
 0002:00026310      @D1992_1
 0002:00026324      @D1994_1
 0002:00003B04      @D199_1
 0002:00000164      @D1_1
 0002:0002634C      @D2001_1
 0002:00026374      @D2003_1
 0002:0002639C      @D2013_1
 0002:00003F4C      @D201_1
 0002:000263AC      @D2061_1
 0002:00003F50      @D207_1
 0002:00003F5C      @D209_1
 0002:00003F6C      @D215_1
 0002:00003F78      @D217_1
 0002:000263F4      @D2197_1
 0002:000041DC      @D219_1
 0002:00026418      @D2213_1
 0002:0002643C      @D2215_1
 0002:00026440      @D2217_1
 0002:000041E4      @D221_1
 0002:00026450      @D2225_1
 0002:000041E8      @D223_1
 0002:00026478      @D2244_1
 0002:00026498      @D2246_0
 0002:0000420C      @D227_1
 0002:0002649C      @D2282_1
 0002:0000421C      @D229_1
 0002:000264A8      @D2302_0
 0002:000264B0      @D2304_0
 0002:000264B8      @D2306_1
 0002:0002650C      @D2308_1
 0002:00026534      @D2310_1
 0002:0000425C      @D231_1
 0002:00026558      @D2363_0
 0002:0002655C      @D2365_0
 0002:00026560      @D2367_1
 0002:00026580      @D2381_1
 0002:000265D4      @D2385_1
 0002:00026634      @D2403_0
 0002:00026638      @D2404_1
 0002:0002663C      @D2434_0
 0002:00026800      @D2440_1
 0002:00026808      @D2442_1
 0002:00026818      @D2448_1
 0002:0002681C      @D2498_1
 0002:0000429C      @D253_1
 0002:000042B4      @D255_1
 0002:000042B8      @D261_1
 0002:0000434C      @D265_1
 0002:00004350      @D271_1
 0002:000044D4      @D281_1
 0002:00004534      @D291_1
 0002:00004554      @D293_1
 0002:00004584      @D299_1
 0002:00000208      @D2_1
 0002:00004588      @D301_1
 0002:000048E8      @D309_1
 0002:00004900      @D311_1
 0002:00004940      @D317_1
 0002:000049A0      @D319_1
 0002:000049A8      @D321_1
 0002:000049AC      @D325_1
 0002:00004B00      @D331_1
 0002:00004B08      @D339_1
 0002:00004B18      @D345_1
 0002:00004B50      @D357_1
 0002:00004B54      @D359_1
 0002:00004B58      @D361_1
 0002:00004B5C      @D363_1
 0002:00004C3C      @D373_1
 0002:000059D0      @D375_1
 0002:000059DC      @D379_1
 0002:000059E8      @D391_1
 0002:00005A94      @D411_1
 0002:00005A9C      @D413_1
 0002:00005AA0      @D415_1
 0002:00005AA4      @D419_1
 0002:00005AB0      @D421_1
 0002:00005AB4      @D429_1
 0002:00005AC0      @D433_1
 0002:00005AC4      @D435_1
 0002:00000BC8      @D43_1
 0002:00005ACC      @D441_1
 0002:00005B48      @D443_1
 0002:00005B74      @D445_1
 0002:00005C00      @D447_1
 0002:00005C10      @D451_1
 0002:00005C18      @D453_1
 0002:00005C1C      @D457_1
 0002:00005C28      @D459_1
 0002:00005C80      @D461_1
 0002:00005C88      @D463_1
 0002:00005C90      @D465_1
 0002:00005C94      @D471_1
 0002:00006E70      @D483_1
 0002:000076A4      @D485_1
 0002:00008518      @D505_1
 0002:0000A1AC      @D509_1
 0002:0000A2C4      @D511_1
 0002:0000B210      @D527_1
 0002:0000B2E8      @D531_1
 0002:0000BDE4      @D533_1
 0002:0000CF70      @D565_1
 0002:0000F0D0      @D569_1
 0002:0000F5D8      @D573_1
 0002:0001468C      @D575_1
 0002:00014A38      @D577_1
 0002:00018710      @D583_1
 0002:00018E84      @D587_1
 0002:00019294      @D615_1
 0002:00019910      @D617_1
 0002:00019964      @D619_1
 0002:00019B5C      @D623_1
 0002:00019D28      @D625_1
 0002:00019EF0      @D627_1
 0002:00019F6C      @D643_1
 0002:00019FF4      @D647_1
 0002:0001A094      @D649_1
 0002:0001A114      @D651_1
 0002:0001C9B4      @D653_1
 0002:0001C9F4      @D655_1
 0002:0001CB4C      @D659_1
 0002:0001D7C0      @D673_1
 0002:0001D7C8      @D679_1
 0002:0001D850      @D681_1
 0002:0001D910      @D683_1
 0002:0001E8C0      @D685_1
 0002:0001EA38      @D689_1
 0002:0001EC8C      @D785_1
 0002:0001F0D0      @D787_1
 0002:0001F160      @D789_0
 0002:00023300      @D793_0
 0002:00023DF4      @D795_1
 0002:00023FD4      @D797_1
 0002:00024064      @D803_1
 0002:00024E30      @D849_1
 0002:00024E34      @D851_1
 0002:00024ECC      @D861_1
 0002:00024EEC      @D867_1
 0001:00000140      @Sysinit@@GetTls$qqrv
 0004:00000000      @T1168_3
 0002:0002533C      @_$CHNC$@__call_terminate$qv
 0002:00025258      @_$CHNC$@std@terminate$qv
 0002:0002535C      @_$ECTOC$@__call_terminate$qv
 0002:00025278      @_$ECTOC$@std@terminate$qv
 0001:0008BBE0      @_CatchCleanup$qv
 0001:00084140      @_InitTermAndUnexPtrs$qv
 0001:0008BA39      @_ReThrowException$quipuc
 0001:0008BA04      @_ThrowExceptionLDTC$qpvt1t1t1uiuiuipuct1
 0001:000839B5      @__ExitExceptBlock
 0001:0008397C      @__InitExceptBlockLDTC
 0001:000840C4      @__adjustClassAdr$qpvp4tpidt2
 0001:00083FB4      @__isCompatTypeID$qp4tpidt1ipp4tpid
 0001:00083ED8      @__isSameTypeID$qp4tpidt1
 0001:00083EA0      @__typeIDname$qp4tpid
 0001:00087738      @_ftol$qv
 0001:0008258C      @_virt_alloc
 0001:000825B4      @_virt_commit
 0001:00082600      @_virt_decommit
 0001:00082618      @_virt_release
 0001:00082520      @_virt_reserve
 0001:00084517      @invokeHnd$qv
 0001:000844FC      @jump$qv
 0001:00084168      @std@terminate$qv
 0001:000841B8      @std@unexpected$qv
 0001:0004551C      PRGUnhandledExceptionFilter
 0001:000268D4      WinMain
 0001:00002AAC      _ArrayToStructure
 0002:00025EE4      _CLOCALE
 0002:00025DD4      _CMonetary
 0002:00025E08      _CNumeric
 0002:00025E20      _CTimeDate
 0001:0002C6B8      _DostoWinHandle
 0001:00032AC8      _GetOldesFile
 0001:0000188C      _HB_FUN_AADD
 0001:00028E54      _HB_FUN_ABS
 0001:000458E0      _HB_FUN_ACCELERATOR
 0001:00002360      _HB_FUN_ACLONE
 0001:00002240      _HB_FUN_ACOPY
 0001:00001CC8      _HB_FUN_ADEL
 0001:000020E4      _HB_FUN_AEVAL
 0001:0004773C      _HB_FUN_AFIELDS
 0001:00001DA8      _HB_FUN_AFILL
 0001:00001BC4      _HB_FUN_AINS
 0001:00045204      _HB_FUN_ALERT
 0001:0004795C      _HB_FUN_ALIAS
 0001:00044744      _HB_FUN_ALLTRIM
 0001:000453CC      _HB_FUN_APPLYDEFAU
 0001:000017E0      _HB_FUN_ARRAY
 0001:0002A7AC      _HB_FUN_ASC
 0001:00002024      _HB_FUN_ASCAN
 0001:00001A68      _HB_FUN_ASIZE
 0001:0000515C      _HB_FUN_ASORT
 0001:00028FF8      _HB_FUN_AT
 0001:00001BA0      _HB_FUN_ATAIL
 0001:00029240      _HB_FUN_ATSKIPSTRINGS
 0001:00047C60      _HB_FUN_BOF
 0001:000051F4      _HB_FUN_BREAK
 0001:0004539C      _HB_FUN_BUTTNDEFCO
 0001:0002B39C      _HB_FUN_CDOW
 0001:00045384      _HB_FUN_CHECKDEFCO
 0001:0002A754      _HB_FUN_CHR
 0001:00028DC4      _HB_FUN_CLIPINIT
 0001:00028D94      _HB_FUN_CLIPPER520
 0001:00028DAC      _HB_FUN_CLIPPER530
 0001:0002B32C      _HB_FUN_CMONTH
 0001:0004154C      _HB_FUN_COL
 0001:00040DCC      _HB_FUN_COLORSELECT
 0001:0004536C      _HB_FUN_COMBODEFCO
 0001:00000184      _HB_FUN_CONFIGCORES
 0001:000453FC      _HB_FUN_CSTR
 0001:00045414      _HB_FUN_CSTRTOVAL
 0001:0002BC24      _HB_FUN_CTOD
 0001:00037630      _HB_FUN_CURDIR
 0001:0003773C      _HB_FUN_CURDIRX
 0001:0002C1FC      _HB_FUN_DATE
 0001:0002C0C0      _HB_FUN_DAY
 0001:00047C9C      _HB_FUN_DBAPPEND
 0001:00047D08      _HB_FUN_DBCLEARFILTER
 0001:0004B184      _HB_FUN_DBCLEARRELATION
 0001:00047D34      _HB_FUN_DBCLOSEALL
 0001:00047D3C      _HB_FUN_DBCLOSEAREA
 0001:00047D4C      _HB_FUN_DBCOMMIT
 0001:00047D74      _HB_FUN_DBCOMMITALL
 0001:00047DC0      _HB_FUN_DBCREATE
 0001:00048358      _HB_FUN_DBDELETE
 0001:0004BCE0      _HB_FUN_DBDROP
 0001:000479D4      _HB_FUN_DBEVAL
 0001:0004BD70      _HB_FUN_DBEXISTS
 0001:00047C1C      _HB_FUN_DBF
 0001:0004CEA8      _HB_FUN_DBF2TEXT
 0001:0006A5E4      _HB_FUN_DBFDBT
 0001:0006A5CC      _HB_FUN_DBFDBTINIT
 0001:00069A74      _HB_FUN_DBFDBT_GETFUNCTABLE
 0001:0004B954      _HB_FUN_DBFIELDINFO
 0001:0004BAEC      _HB_FUN_DBFILEGET
 0001:0004BBF4      _HB_FUN_DBFILEPUT
 0001:00048380      _HB_FUN_DBFILTER
 0001:0006977C      _HB_FUN_DBFNTX
 0001:00069764      _HB_FUN_DBFNTXINIT
 0001:00068448      _HB_FUN_DBFNTX_GETFUNCTABLE
 0001:00052AA4      _HB_FUN_DBF_GETFUNCTABLE
 0001:000483D4      _HB_FUN_DBGOBOTTOM
 0001:000483FC      _HB_FUN_DBGOTO
 0001:00048464      _HB_FUN_DBGOTOP
 0001:0004B798      _HB_FUN_DBINFO
 0001:0004B844      _HB_FUN_DBORDERINFO
 0001:000487BC      _HB_FUN_DBRECALL
 0001:0004BA30      _HB_FUN_DBRECORDINFO
 0001:0004B100      _HB_FUN_DBRELATION
 0001:000487E4      _HB_FUN_DBRLOCK
 0001:00048890      _HB_FUN_DBRLOCKLIST
 0001:0004B144      _HB_FUN_DBRSELECT
 0001:000488EC      _HB_FUN_DBRUNLOCK
 0001:00048928      _HB_FUN_DBSEEK
 0001:00048A48      _HB_FUN_DBSELECTAREA
 0001:00052B10      _HB_FUN_DBSETDBFVERSION
 0001:0004AEC8      _HB_FUN_DBSETDRIVER
 0001:00048AC4      _HB_FUN_DBSETFILTER
 0001:0004B198      _HB_FUN_DBSETRELATION
 0001:00048B64      _HB_FUN_DBSKIP
 0001:0004CB94      _HB_FUN_DBSKIPPER
 0001:00048CCC      _HB_FUN_DBSTRUCT
 0001:00048CF0      _HB_FUN_DBTABLEEXT
 0001:00048D94      _HB_FUN_DBUNLOCK
 0001:00048DC4      _HB_FUN_DBUNLOCKALL
 0001:00048E18      _HB_FUN_DBUSEAREA
 0001:0004C8A0      _HB_FUN_DBUSEAREAD
 0001:00049120      _HB_FUN_DELETED
 0001:00052B90      _HB_FUN_DELIM_GETFUNCTABLE
 0001:0002B00C      _HB_FUN_DEVOUT
 0001:0002AF90      _HB_FUN_DEVPOS
 0001:00037D00      _HB_FUN_DISABLEWAITLOCKS
 0001:0002E6E8      _HB_FUN_DISPBEGIN
 0001:0002985C      _HB_FUN_DISPBOX
 0001:0002E6F8      _HB_FUN_DISPCOUNT
 0001:0002E6F0      _HB_FUN_DISPEND
 0001:0002B0D0      _HB_FUN_DISPOUT
 0001:0002B1C0      _HB_FUN_DISPOUTAT
 0001:0000BACC      _HB_FUN_DOSERROR
 0001:0002C238      _HB_FUN_DOW
 0001:0002BEF4      _HB_FUN_DTOC
 0001:0002BF60      _HB_FUN_DTOS
 0001:0002C2CC      _HB_FUN_EMPTY
 0001:00049158      _HB_FUN_EOF
 0001:0000BA40      _HB_FUN_ERRORBLOCK
 0001:00022424      _HB_FUN_ERRORLEVEL
 0001:00046000      _HB_FUN_ERRORNEW
 0001:00045474      _HB_FUN_ERRORSYS
 0001:00035F70      _HB_FUN_EXP
 0001:0002E448      _HB_FUN_FCHARCOUNT
 0001:0003741C      _HB_FUN_FCLOSE
 0001:00049194      _HB_FUN_FCOUNT
 0001:000371D0      _HB_FUN_FCREATE
 0001:00037478      _HB_FUN_FERASE
 0001:000373E0      _HB_FUN_FERROR
 0001:000491C4      _HB_FUN_FIELDDEC
 0001:00049230      _HB_FUN_FIELDGET
 0001:000492A4      _HB_FUN_FIELDLEN
 0001:00049310      _HB_FUN_FIELDNAME
 0001:00049390      _HB_FUN_FIELDPOS
 0001:0004940C      _HB_FUN_FIELDPUT
 0001:00049454      _HB_FUN_FIELDTYPE
 0001:0002C61C      _HB_FUN_FILE
 0001:0002E3B4      _HB_FUN_FLINECOUNT
 0001:000494C0      _HB_FUN_FLOCK
 0001:00037154      _HB_FUN_FOPEN
 0001:00049528      _HB_FUN_FOUND
 0001:0002DFC4      _HB_FUN_FPARSE
 0001:0002E174      _HB_FUN_FPARSEEX
 0001:0002E4E8      _HB_FUN_FPARSELINE
 0001:000372B0      _HB_FUN_FREAD
 0001:00037598      _HB_FUN_FREADSTR
 0001:000374BC      _HB_FUN_FRENAME
 0001:00037520      _HB_FUN_FSEEK
 0001:0002E2BC      _HB_FUN_FWORDCOUNT
 0001:00037350      _HB_FUN_FWRITE
 0001:0004604C      _HB_FUN_GET
 0001:00045718      _HB_FUN_GETACTIVE
 0001:00045748      _HB_FUN_GETAPPLYKEY
 0001:0004530C      _HB_FUN_GETCLRBACK
 0001:000452F4      _HB_FUN_GETCLRFORE
 0001:00045294      _HB_FUN_GETCLRPAIR
 0001:00042720      _HB_FUN_GETDEFAULTPRINTER
 0001:00045730      _HB_FUN_GETDOSETKEY
 0001:000459D0      _HB_FUN_GETMSSGLINE
 0001:00046454      _HB_FUN_GETNEW
 0001:000452DC      _HB_FUN_GETPAIRLEN
 0001:000452C4      _HB_FUN_GETPAIRPOS
 0001:00045778      _HB_FUN_GETPOSTVALIDATE
 0001:00045760      _HB_FUN_GETPREVALIDATE
 0001:00042AE4      _HB_FUN_GETPRINTERS
 0001:00045700      _HB_FUN_GETREADER
 0001:00045850      _HB_FUN_GUIAPPLYKEY
 0001:00045880      _HB_FUN_GUIGETPOSTVALIDATE
 0001:00045868      _HB_FUN_GUIGETPREVALIDATE
 0001:00045838      _HB_FUN_GUIREADER
 0001:00013C44      _HB_FUN_HALLOCATE
 0001:00012A6C      _HB_FUN_HASH
 0001:000467E8      _HB_FUN_HASHADDMEMBER
 0001:00045C70      _HB_FUN_HBCLASS
 0001:0002B2D4      _HB_FUN_HBCONSOLELOCK
 0001:0002B2D8      _HB_FUN_HBCONSOLEUNLOCK
 0001:000464B8      _HB_FUN_HBGETLIST
 0001:00046758      _HB_FUN_HBOBJECT
 0001:000023CC      _HB_FUN_HB_AEXPRESSIONS
 0001:0000239C      _HB_FUN_HB_APARAMS
 0001:0000ADC4      _HB_FUN_HB_ARGC
 0001:0000AD2C      _HB_FUN_HB_ARGCHECK
 0001:0000AD70      _HB_FUN_HB_ARGSTRING
 0001:0000ADDC      _HB_FUN_HB_ARGV
 0001:00001A30      _HB_FUN_HB_ARRAYID
 0001:00003E64      _HB_FUN_HB_ARRAYTOSTRUCTURE
 0001:000025D4      _HB_FUN_HB_ATOKENS
 0001:0003CFF8      _HB_FUN_HB_ATX
 0001:00029798      _HB_FUN_HB_BACKGROUNDACTIVE
 0001:000296B8      _HB_FUN_HB_BACKGROUNDADD
 0001:0002974C      _HB_FUN_HB_BACKGROUNDDEL
 0001:000296B0      _HB_FUN_HB_BACKGROUNDRESET
 0001:00029684      _HB_FUN_HB_BACKGROUNDRUN
 0001:00029800      _HB_FUN_HB_BACKGROUNDTIME
 0001:0003269C      _HB_FUN_HB_BITAND
 0001:00032888      _HB_FUN_HB_BITISSET
 0001:00032828      _HB_FUN_HB_BITNOT
 0001:00032720      _HB_FUN_HB_BITOR
 0001:0003297C      _HB_FUN_HB_BITRESET
 0001:000328F4      _HB_FUN_HB_BITSET
 0001:00032A08      _HB_FUN_HB_BITSHIFT
 0001:000327A4      _HB_FUN_HB_BITXOR
 0001:00044D20      _HB_FUN_HB_BUILDDATE
 0001:00044D40      _HB_FUN_HB_BUILDINFO
 0001:0003E1C0      _HB_FUN_HB_CLOCKS2SECS
 0001:00037AF4      _HB_FUN_HB_CLOSEPROCESS
 0001:0000AFC0      _HB_FUN_HB_CMDARGARGV
 0001:0002A804      _HB_FUN_HB_COLORINDEX
 0001:00040E38      _HB_FUN_HB_COLORTON
 0001:00044CC0      _HB_FUN_HB_COMPILER
 0001:000225CC      _HB_FUN_HB_DBG_INVOKEDEBUG
 0001:00022708      _HB_FUN_HB_DBG_PROCLEVEL
 0001:00022680      _HB_FUN_HB_DBG_VMVARSGET
 0001:00022668      _HB_FUN_HB_DBG_VMVARSLEN
 0001:0002263C      _HB_FUN_HB_DBG_VMVARSLIST
 0001:000226C0      _HB_FUN_HB_DBG_VMVARSSET
 0001:0000E380      _HB_FUN_HB_EXEC
 0001:0000DDF8      _HB_FUN_HB_EXECFROMARRAY
 0001:00037CF0      _HB_FUN_HB_FCOMMIT
 0001:00037230      _HB_FUN_HB_FCREATE
 0001:00010B74      _HB_FUN_HB_FM_STAT
 0001:0002DB28      _HB_FUN_HB_FNAMEMERGE
 0001:0002DAA8      _HB_FUN_HB_FNAMESPLIT
 0001:0002E684      _HB_FUN_HB_FTEMPCREATE
 0001:00022A18      _HB_FUN_HB_FUNCPTR
 0001:000376E4      _HB_FUN_HB_F_EOF
 0001:00011230      _HB_FUN_HB_GCALL
 0001:00011228      _HB_FUN_HB_GCSTEP
 0001:0002E710      _HB_FUN_HB_GT_VERSION
 0001:000333D0      _HB_FUN_HB_HEXTONUM
 0001:000335B0      _HB_FUN_HB_HEXTOSTR
 0001:00014B94      _HB_FUN_HB_HFIND
 0001:00014990      _HB_FUN_HB_I18NGETBASELANGUAGE
 0001:000149A4      _HB_FUN_HB_I18NGETBASELANGUAGENAME
 0001:00014968      _HB_FUN_HB_I18NGETLANGUAGE
 0001:0001497C      _HB_FUN_HB_I18NGETLANGUAGENAME
 0001:00014878      _HB_FUN_HB_I18NGETPATH
 0001:00014A78      _HB_FUN_HB_I18NINITIALIZED
 0001:000143FC      _HB_FUN_HB_I18NLOADTABLE
 0001:00014678      _HB_FUN_HB_I18NSAVETABLE
 0001:000149B8      _HB_FUN_HB_I18NSETBASELANGUAGE
 0001:0001488C      _HB_FUN_HB_I18NSETLANGUAGE
 0001:00014820      _HB_FUN_HB_I18NSETPATH
 0001:00014528      _HB_FUN_HB_I18NSORTTABLE
 0001:00034434      _HB_FUN_HB_IDLEADD
 0001:00034560      _HB_FUN_HB_IDLEDEL
 0001:00034390      _HB_FUN_HB_IDLERESET
 0001:00034398      _HB_FUN_HB_IDLESLEEP
 0001:000345A8      _HB_FUN_HB_IDLESLEEPMSEC
 0001:00034380      _HB_FUN_HB_IDLESTATE
 0001:00034600      _HB_FUN_HB_IDLEWAITNOCPU
 0001:00044AE8      _HB_FUN_HB_ISARRAY
 0001:00044B70      _HB_FUN_HB_ISBLOCK
 0001:00044924      _HB_FUN_HB_ISBYREF
 0001:00044AC0      _HB_FUN_HB_ISDATE
 0001:00044BC4      _HB_FUN_HB_ISHASH
 0001:00044A94      _HB_FUN_HB_ISLOGICAL
 0001:00044A3C      _HB_FUN_HB_ISMEMO
 0001:000449BC      _HB_FUN_HB_ISNIL
 0001:00044BEC      _HB_FUN_HB_ISNULL
 0001:00044A68      _HB_FUN_HB_ISNUMERIC
 0001:00044B2C      _HB_FUN_HB_ISOBJECT
 0001:00044B9C      _HB_FUN_HB_ISPOINTER
 0001:0003DB54      _HB_FUN_HB_ISREGEXSTRING
 0001:00033DBC      _HB_FUN_HB_ISSERVICE
 0001:000449FC      _HB_FUN_HB_ISSTRING
 0001:00034E24      _HB_FUN_HB_KEYPUT
 0001:000356A8      _HB_FUN_HB_LANGERRMSG
 0001:000356C8      _HB_FUN_HB_LANGMESSAGE
 0001:00035688      _HB_FUN_HB_LANGNAME
 0001:00035664      _HB_FUN_HB_LANGSELECT
 0001:000001A0      _HB_FUN_HB_LANG_EN
 0001:00022E54      _HB_FUN_HB_MULTITHREAD
 0001:00022E18      _HB_FUN_HB_NOMOUSE
 0001:00022E1C      _HB_FUN_HB_NOSTARTUPWINDOW
 0001:000332F8      _HB_FUN_HB_NUMTOHEX
 0001:0000A578      _HB_FUN_HB_OBJMSGPTR
 0001:00037858      _HB_FUN_HB_OPENPROCESS
 0001:0003783C      _HB_FUN_HB_OSDRIVESEPARATOR
 0001:00037404      _HB_FUN_HB_OSERROR
 0001:0002AA00      _HB_FUN_HB_OSNEWLINE
 0001:00037828      _HB_FUN_HB_OSPATHDELIMITERS
 0001:0003780C      _HB_FUN_HB_OSPATHLISTSEPARATOR
 0001:000377F0      _HB_FUN_HB_OSPATHSEPARATOR
 0001:00044D00      _HB_FUN_HB_PCODEVER
 0001:00033EF8      _HB_FUN_HB_POPSIGNALHANDLER
 0001:00037C00      _HB_FUN_HB_PROCESSVALUE
 0001:00033E20      _HB_FUN_HB_PUSHSIGNALHANDLER
 0001:00022AC0      _HB_FUN_HB_QSELF
 0001:00033700      _HB_FUN_HB_RANDOM
 0001:000337E0      _HB_FUN_HB_RANDOMINT
 0001:00033920      _HB_FUN_HB_RANDOMSEED
 0001:0003D9A0      _HB_FUN_HB_REGEX
 0001:0003D9B0      _HB_FUN_HB_REGEXATX
 0001:0003DA0C      _HB_FUN_HB_REGEXCOMP
 0001:0003D9C0      _HB_FUN_HB_REGEXMATCH
 0001:0003D9FC      _HB_FUN_HB_REGEXSPLIT
 0001:00022C5C      _HB_FUN_HB_RESTOREBLOCK
 0001:00022BC0      _HB_FUN_HB_SAVEBLOCK
 0001:000341BC      _HB_FUN_HB_SERVICEGENERATEFAULT
 0001:000341CC      _HB_FUN_HB_SERVICEGENERATEFPE
 0001:00033DE0      _HB_FUN_HB_SERVICELOOP
 0001:0002A65C      _HB_FUN_HB_SETCODEPAGE
 0001:00041138      _HB_FUN_HB_SETKEYARRAY
 0001:00041374      _HB_FUN_HB_SETKEYCHECK
 0001:000411B0      _HB_FUN_HB_SETKEYGET
 0001:0004120C      _HB_FUN_HB_SETKEYSAVE
 0001:00025C00      _HB_FUN_HB_SETMACRO
 0001:00033FA0      _HB_FUN_HB_SIGNALDESC
 0001:00002A30      _HB_FUN_HB_SIZEOFCSTRUCTURE
 0001:00033D6C      _HB_FUN_HB_STARTSERVICE
 0001:0002BFE0      _HB_FUN_HB_STOD
 0001:000334BC      _HB_FUN_HB_STRTOHEX
 0001:00004774      _HB_FUN_HB_STRUCTURETOARRAY
 0001:00042F10      _HB_FUN_HB_TRACELEVEL
 0001:00042EDC      _HB_FUN_HB_TRACESTATE
 0001:00042F44      _HB_FUN_HB_TRACESTRING
 0001:0002A694      _HB_FUN_HB_TRANSLATE
 0001:00022E64      _HB_FUN_HB_VMMODE
 0001:00022E20      _HB_FUN_HB_WITHOBJECTCOUNTER
 0001:0001368C      _HB_FUN_HCLONE
 0001:000136E4      _HB_FUN_HCOPY
 0001:00012DF4      _HB_FUN_HDEL
 0001:0001326C      _HB_FUN_HDELAT
 0001:00049560      _HB_FUN_HEADER
 0001:00013570      _HB_FUN_HEVAL
 0001:000133CC      _HB_FUN_HFILL
 0001:00012CB0      _HB_FUN_HGET
 0001:000139F0      _HB_FUN_HGETAUTOADD
 0001:00013928      _HB_FUN_HGETCASEMATCH
 0001:00012E98      _HB_FUN_HGETKEYAT
 0001:00013314      _HB_FUN_HGETKEYS
 0001:000130D8      _HB_FUN_HGETPAIRAT
 0001:00013B7C      _HB_FUN_HGETPARTITION
 0001:00012B9C      _HB_FUN_HGETPOS
 0001:00012F4C      _HB_FUN_HGETVALUEAT
 0001:00013370      _HB_FUN_HGETVALUES
 0001:00012C28      _HB_FUN_HHASKEY
 0001:000458C8      _HB_FUN_HITTEST
 0001:000137DC      _HB_FUN_HMERGE
 0001:0001347C      _HB_FUN_HSCAN
 0001:00012D70      _HB_FUN_HSET
 0001:00013984      _HB_FUN_HSETAUTOADD
 0001:000138B0      _HB_FUN_HSETCASEMATCH
 0001:00013A44      _HB_FUN_HSETPARTITION
 0001:00013000      _HB_FUN_HSETVALUEAT
 0001:000147A0      _HB_FUN_I18N
 0001:000495B0      _HB_FUN_INDEXORD
 0001:00034A0C      _HB_FUN_INKEY
 0001:0003DCE0      _HB_FUN_INT
 0001:00036CB8      _HB_FUN_ISAFFIRM
 0001:00035228      _HB_FUN_ISALNUM
 0001:00035024      _HB_FUN_ISALPHA
 0001:00035420      _HB_FUN_ISASCII
 0001:00035270      _HB_FUN_ISCNTRL
 0001:0004640C      _HB_FUN_ISDEFCOLOR
 0001:000350D0      _HB_FUN_ISDIGIT
 0001:0002C66C      _HB_FUN_ISDIRECTORY
 0001:000352B8      _HB_FUN_ISGRAPH
 0001:000351A0      _HB_FUN_ISLOWER
 0001:00036D10      _HB_FUN_ISNEGATIVE
 0001:00035300      _HB_FUN_ISPRINT
 0001:00035348      _HB_FUN_ISPUNCT
 0001:00035390      _HB_FUN_ISSPACE
 0001:00035118      _HB_FUN_ISUPPER
 0001:000353D8      _HB_FUN_ISXDIGIT
 0001:00034F18      _HB_FUN_LASTKEY
 0001:00049624      _HB_FUN_LASTREC
 0001:000356E8      _HB_FUN_LEFT
 0001:000357A8      _HB_FUN_LEN
 0001:00045354      _HB_FUN_LISTBDEFCO
 0001:00049650      _HB_FUN_LOCK
 0001:00036058      _HB_FUN_LOG
 0001:00041C8C      _HB_FUN_LOWER
 0001:00044628      _HB_FUN_LTRIM
 0001:000496B8      _HB_FUN_LUPDATE
 0001:0000016B      _HB_FUN_MAIN
 0001:00035A08      _HB_FUN_MATHERRMODE
 0001:00035EAC      _HB_FUN_MATHERRORBLOCK
 0001:000362FC      _HB_FUN_MAX
 0001:00036284      _HB_FUN_MAXCOL
 0001:0003620C      _HB_FUN_MAXROW
 0001:000369E0      _HB_FUN_MCOL
 0001:00036A80      _HB_FUN_MDBLCLK
 0001:00010B54      _HB_FUN_MEMORY
 0001:00045928      _HB_FUN_MEMVARBLOCK
 0001:000453B4      _HB_FUN_MENUDEFCOL
 0001:00045A00      _HB_FUN_MENUMSSGLINE
 0001:00028824      _HB_FUN_METHODNAME
 0001:00036970      _HB_FUN_MHIDE
 0001:000365C8      _HB_FUN_MIN
 0001:00036A58      _HB_FUN_MLEFTDOWN
 0001:0002C054      _HB_FUN_MONTH
 0001:0003694C      _HB_FUN_MPRESENT
 0001:00036B68      _HB_FUN_MRESTSTATE
 0001:00036A30      _HB_FUN_MRIGHTDOWN
 0001:000369CC      _HB_FUN_MROW
 0001:00036AB8      _HB_FUN_MSAVESTATE
 0001:00036C28      _HB_FUN_MSETBOUNDS
 0001:00036988      _HB_FUN_MSETCURSOR
 0001:000369F4      _HB_FUN_MSETPOS
 0001:0003697C      _HB_FUN_MSHOW
 0001:00045958      _HB_FUN_MSSGLINE
 0001:00036D68      _HB_FUN_NATIONMSG
 0001:000496E8      _HB_FUN_NETERR
 0001:00034E44      _HB_FUN_NEXTKEY
 0001:0004972C      _HB_FUN_ORDBAGEXT
 0001:000497D4      _HB_FUN_ORDBAGNAME
 0001:000498FC      _HB_FUN_ORDCONDSET
 0001:0004A658      _HB_FUN_ORDCOUNT
 0001:00049B84      _HB_FUN_ORDCREATE
 0001:0004A5A4      _HB_FUN_ORDCUSTOM
 0001:0004A43C      _HB_FUN_ORDDESCEND
 0001:00049C70      _HB_FUN_ORDDESTROY
 0001:0004A10C      _HB_FUN_ORDFINDREC
 0001:00049CD0      _HB_FUN_ORDFOR
 0001:0004A4F0      _HB_FUN_ORDISUNIQUE
 0001:00049E18      _HB_FUN_ORDKEY
 0001:0004A2D4      _HB_FUN_ORDKEYADD
 0001:00049F4C      _HB_FUN_ORDKEYCOUNT
 0001:0004A388      _HB_FUN_ORDKEYDEL
 0001:0004A090      _HB_FUN_ORDKEYGOTO
 0001:00049FEC      _HB_FUN_ORDKEYNO
 0001:0004A26C      _HB_FUN_ORDKEYVAL
 0001:0004A6D0      _HB_FUN_ORDLISTADD
 0001:0004A814      _HB_FUN_ORDLISTCLEAR
 0001:0004A840      _HB_FUN_ORDLISTREBUILD
 0001:0004A86C      _HB_FUN_ORDNAME
 0001:0004A984      _HB_FUN_ORDNUMBER
 0001:0004AF70      _HB_FUN_ORDSCOPE
 0001:0004AA54      _HB_FUN_ORDSETFOCUS
 0001:0004A19C      _HB_FUN_ORDSKIPRAW
 0001:0004A1EC      _HB_FUN_ORDSKIPUNIQUE
 0001:00044CA0      _HB_FUN_OS
 0001:0002ACC8      _HB_FUN_OUTERR
 0001:0002AC64      _HB_FUN_OUTSTD
 0001:00036E18      _HB_FUN_PADC
 0001:00036F50      _HB_FUN_PADL
 0001:00037054      _HB_FUN_PADR
 0001:0002AE5C      _HB_FUN_PCOL
 0001:000287E8      _HB_FUN_PCOUNT
 0001:0004265C      _HB_FUN_PRINTEREXISTS
 0001:0004289C      _HB_FUN_PRINTERPORTTONAME
 0001:00042A64      _HB_FUN_PRINTFILERAW
 0001:000288CC      _HB_FUN_PROCFILE
 0001:00028894      _HB_FUN_PROCLINE
 0001:0002885C      _HB_FUN_PROCNAME
 0001:0002AE44      _HB_FUN_PROW
 0001:0002AD90      _HB_FUN_QOUT
 0001:0002AD2C      _HB_FUN_QQOUT
 0001:00045324      _HB_FUN_RADGRDEFCO
 0001:0004533C      _HB_FUN_RADITDEFCO
 0001:00045820      _HB_FUN_RANGECHECK
 0001:00004850      _HB_FUN_RASCAN
 0001:000533A0      _HB_FUN_RDDINIT
 0001:0004AAF4      _HB_FUN_RDDLIST
 0001:0004AB7C      _HB_FUN_RDDNAME
 0001:0004ABE4      _HB_FUN_RDDREGISTER
 0001:0004AE20      _HB_FUN_RDDSETDEFAULT
 0001:000533B8      _HB_FUN_RDDSYS
 0001:00045808      _HB_FUN_READFORMAT
 0001:000457C0      _HB_FUN_READKILL
 0001:000456E8      _HB_FUN_READMODAL
 0001:00045790      _HB_FUN_READUPDATED
 0001:0004AC54      _HB_FUN_RECCOUNT
 0001:0004AC5C      _HB_FUN_RECNO
 0001:0004ACA4      _HB_FUN_RECSIZE
 0001:0003DBA0      _HB_FUN_REPLICATE
 0001:0003DF4C      _HB_FUN_RESTSCREEN
 0001:0004ACF4      _HB_FUN_RLOCK
 0001:0003DD6C      _HB_FUN_ROUND
 0001:00041524      _HB_FUN_ROW
 0001:000446A4      _HB_FUN_RTRIM
 0001:0003DEA0      _HB_FUN_SAVESCREEN
 0001:00045E38      _HB_FUN_SCALAROBJECT
 0001:0003DFC8      _HB_FUN_SCROLL
 0001:0003E08C      _HB_FUN_SCROLLFIXED
 0001:00052C18      _HB_FUN_SDF_GETFUNCTABLE
 0001:0003E180      _HB_FUN_SECONDS
 0001:0003E19C      _HB_FUN_SECONDSCPU
 0001:0004AD5C      _HB_FUN_SELECT
 0001:0003EA64      _HB_FUN_SET
 0001:00040DEC      _HB_FUN_SETBLINK
 0001:0003E804      _HB_FUN_SETCANCEL
 0001:000452AC      _HB_FUN_SETCLRPAIR
 0001:00040D94      _HB_FUN_SETCOLOR
 0001:00040EA4      _HB_FUN_SETCURSOR
 0001:00045610      _HB_FUN_SETERRORMODE
 0001:00034C20      _HB_FUN_SETINKEYAFTERBLOCK
 0001:00034B30      _HB_FUN_SETINKEYBEFOREBLOCK
 0001:00041058      _HB_FUN_SETKEY
 0001:00034F58      _HB_FUN_SETLASTKEY
 0001:000414E8      _HB_FUN_SETPOS
 0001:00041574      _HB_FUN_SETPOSBS
 0001:0002AFCC      _HB_FUN_SETPRC
 0001:00045630      _HB_FUN_SETUNHANDLEDEXCEPTIONFILTER
 0001:000415A0      _HB_FUN_SPACE
 0001:00036148      _HB_FUN_SQRT
 0001:0002BFB8      _HB_FUN_STOD
 0001:0004184C      _HB_FUN_STR
 0001:00041D44      _HB_FUN_STRDEL
 0001:00041F34      _HB_FUN_STRTRAN
 0001:00042230      _HB_FUN_STUFF
 0001:0004238C      _HB_FUN_SUBSTR
 0001:00028E3C      _HB_FUN_SYSINIT
 0001:000467D0      _HB_FUN_TASSOCIATIVEARRAY
 0001:000458B0      _HB_FUN_TBAPPLYKEY
 0001:00045898      _HB_FUN_TBREADER
 0001:0000C9B0      _HB_FUN_THROW
 0001:0002C12C      _HB_FUN_TIME
 0001:0002C150      _HB_FUN_TIMEOFDAY
 0001:00046830      _HB_FUN_TRACELOG
 0001:00042F78      _HB_FUN_TRANSFORM
 0001:0004473C      _HB_FUN_TRIM
 0001:000447F0      _HB_FUN_TYPE
 0001:00045FB8      _HB_FUN_UNREF
 0001:000457A8      _HB_FUN_UPDATED
 0001:00041CE8      _HB_FUN_UPPER
 0001:0004ADAC      _HB_FUN_USED
 0001:00044860      _HB_FUN_VAL
 0001:0004542C      _HB_FUN_VALTOPRG
 0001:00045444      _HB_FUN_VALTOPRGEXP
 0001:000448FC      _HB_FUN_VALTYPE
 0001:00044CE0      _HB_FUN_VERSION
 0001:0003D960      _HB_FUN_WILD2REGEX
 0001:00082020      _HB_FUN_WIN_CHECKDLGBUTTON
 0001:000820A0      _HB_FUN_WIN_CHECKRADIOBUTTON
 0001:000823A4      _HB_FUN_WIN_CREATEBRUSH
 0001:00081EA4      _HB_FUN_WIN_DELETEOBJECT
 0001:0008243C      _HB_FUN_WIN_DRAWTEXT
 0001:00082254      _HB_FUN_WIN_GETCLIENTRECT
 0001:0008231C      _HB_FUN_WIN_GETDC
 0001:00081F68      _HB_FUN_WIN_GETDIALOGBASEUNITS
 0001:000820E8      _HB_FUN_WIN_GETDLGITEM
 0001:00081FB8      _HB_FUN_WIN_GETDLGITEMTEXT
 0001:00081E84      _HB_FUN_WIN_GETSTOCKOBJECT
 0001:00081F18      _HB_FUN_WIN_HIWORD
 0001:00082174      _HB_FUN_WIN_INVALIDATERECT
 0001:00082078      _HB_FUN_WIN_ISDLGBUTTONCHECKED
 0001:00082188      _HB_FUN_WIN_LOADICON
 0001:000821DC      _HB_FUN_WIN_LOADIMAGE
 0001:00081EF8      _HB_FUN_WIN_LOWORD
 0001:00082110      _HB_FUN_WIN_MESSAGEBOX
 0001:00081F38      _HB_FUN_WIN_MULDIV
 0001:00082370      _HB_FUN_WIN_RECTANGLE
 0001:0008233C      _HB_FUN_WIN_RELEASEDC
 0001:00081ED0      _HB_FUN_WIN_SELECTOBJECT
 0001:00081CE8      _HB_FUN_WIN_SENDDLGITEMMESSAGE
 0001:00081BC0      _HB_FUN_WIN_SENDMESSAGE
 0001:00081E34      _HB_FUN_WIN_SETBKCOLOR
 0001:00081E5C      _HB_FUN_WIN_SETBKMODE
 0001:00081F94      _HB_FUN_WIN_SETDLGITEMTEXT
 0001:00081DFC      _HB_FUN_WIN_SETFOCUS
 0001:00081F7C      _HB_FUN_WIN_SETMENU
 0001:00081E0C      _HB_FUN_WIN_SETTEXTCOLOR
 0001:00081DBC      _HB_FUN_WIN_SETTIMER
 0001:00045040      _HB_FUN_WORD
 0001:00071978      _HB_FUN_WVW_ADDROWS
 0001:00073198      _HB_FUN_WVW_APPENDMENU
 0001:000771B0      _HB_FUN_WVW_CBADDSTRING
 0001:00080B3C      _HB_FUN_WVW_CBCREATE
 0001:00080FD0      _HB_FUN_WVW_CBDESTROY
 0001:00081278      _HB_FUN_WVW_CBENABLE
 0001:00081954      _HB_FUN_WVW_CBFINDSTRING
 0001:00081A00      _HB_FUN_WVW_CBGETCURTEXT
 0001:000818B4      _HB_FUN_WVW_CBGETINDEX
 0001:00081B10      _HB_FUN_WVW_CBISDROPPED
 0001:000811BC      _HB_FUN_WVW_CBISFOCUSED
 0001:000813A4      _HB_FUN_WVW_CBSETCODEBLOCK
 0001:000771E0      _HB_FUN_WVW_CBSETCURSEL
 0001:000810E8      _HB_FUN_WVW_CBSETFOCUS
 0001:00081514      _HB_FUN_WVW_CBSETFONT
 0001:000817E8      _HB_FUN_WVW_CBSETINDEX
 0001:00073F28      _HB_FUN_WVW_CENTERWINDOW
 0001:0007B0DC      _HB_FUN_WVW_CHOOSECOLOR
 0001:0007AD20      _HB_FUN_WVW_CHOOSEFONT
 0001:000739A8      _HB_FUN_WVW_CLIENTTOSCREEN
 0001:00076960      _HB_FUN_WVW_CREATEDIALOGDYNAMIC
 0001:00076BE0      _HB_FUN_WVW_CREATEDIALOGMODAL
 0001:00074AF4      _HB_FUN_WVW_CREATEFONT
 0001:00073170      _HB_FUN_WVW_CREATEMENU
 0001:00073184      _HB_FUN_WVW_CREATEPOPUPMENU
 0001:00073298      _HB_FUN_WVW_DELETEMENU
 0001:000732D4      _HB_FUN_WVW_DESTROYMENU
 0001:00077210      _HB_FUN_WVW_DLGSETICON
 0001:00077494      _HB_FUN_WVW_DRAWBOXGET
 0001:00077BBC      _HB_FUN_WVW_DRAWBOXGROUP
 0001:00077F3C      _HB_FUN_WVW_DRAWBOXGROUPRAISED
 0001:0007781C      _HB_FUN_WVW_DRAWBOXRAISED
 0001:000779B8      _HB_FUN_WVW_DRAWBOXRECESSED
 0001:0007A488      _HB_FUN_WVW_DRAWBUTTON
 0001:00079E40      _HB_FUN_WVW_DRAWCOLORRECT
 0001:00079144      _HB_FUN_WVW_DRAWELLIPSE
 0001:00079BE0      _HB_FUN_WVW_DRAWFOCUSRECT
 0001:0007A0C4      _HB_FUN_WVW_DRAWGRIDHORZ
 0001:0007A218      _HB_FUN_WVW_DRAWGRIDVERT
 0001:000781C4      _HB_FUN_WVW_DRAWIMAGE
 0001:00078430      _HB_FUN_WVW_DRAWLABEL
 0001:0007BC94      _HB_FUN_WVW_DRAWLABELEX
 0001:00074DCC      _HB_FUN_WVW_DRAWLABELOBJ
 0001:00078AE4      _HB_FUN_WVW_DRAWLINE
 0001:0007BEEC      _HB_FUN_WVW_DRAWLINEEX
 0001:00073428      _HB_FUN_WVW_DRAWMENUBAR
 0001:0007890C      _HB_FUN_WVW_DRAWOUTLINE
 0001:0007C3A8      _HB_FUN_WVW_DRAWOUTLINEEX
 0001:0007BA3C      _HB_FUN_WVW_DRAWPICTURE
 0001:00076378      _HB_FUN_WVW_DRAWPROGRESSBAR
 0001:000793D8      _HB_FUN_WVW_DRAWRECTANGLE
 0001:000798D0      _HB_FUN_WVW_DRAWROUNDRECT
 0001:000754F4      _HB_FUN_WVW_DRAWSCROLLBUTTON
 0001:00075B54      _HB_FUN_WVW_DRAWSCROLLTHUMBHORZ
 0001:000758FC      _HB_FUN_WVW_DRAWSCROLLTHUMBVERT
 0001:00075D98      _HB_FUN_WVW_DRAWSHADEDRECT
 0001:0007A94C      _HB_FUN_WVW_DRAWSTATUSBAR
 0001:0007603C      _HB_FUN_WVW_DRAWTEXTBOX
 0001:00075164      _HB_FUN_WVW_DRAWTOOLBUTTONSTATE
 0001:00073300      _HB_FUN_WVW_ENABLEMENUITEM
 0001:0007966C      _HB_FUN_WVW_FILLRECTANGLE
 0001:0007368C      _HB_FUN_WVW_GETCLIPBOARD
 0001:000766EC      _HB_FUN_WVW_GETCURSORPOS
 0001:000741D8      _HB_FUN_WVW_GETFONTINFO
 0001:00073330      _HB_FUN_WVW_GETLASTMENUEVENT
 0001:00076800      _HB_FUN_WVW_GETMENU
 0001:0007B314      _HB_FUN_WVW_GETPAINTRECT
 0001:00074374      _HB_FUN_WVW_GETPALETTE
 0001:0007363C      _HB_FUN_WVW_GETRGBCOLOR
 0001:000734A4      _HB_FUN_WVW_GETSCREENHEIGHT
 0001:0007348C      _HB_FUN_WVW_GETSCREENWIDTH
 0001:000735BC      _HB_FUN_WVW_GETTITLE
 0001:00073E44      _HB_FUN_WVW_GETWINDOWHANDLE
 0001:000740E8      _HB_FUN_WVW_GETXYFROMROWCOL
 0001:00073858      _HB_FUN_WVW_INVALIDATERECT
 0001:00073984      _HB_FUN_WVW_ISLBUTTONPRESSED
 0001:00073848      _HB_FUN_WVW_KEYBOARD
 0001:0007CE3C      _HB_FUN_WVW_KILLTIMER
 0001:00077150      _HB_FUN_WVW_LBADDSTRING
 0001:00077180      _HB_FUN_WVW_LBSETCURSEL
 0001:00071684      _HB_FUN_WVW_LCLOSEWINDOW
 0001:0007B664      _HB_FUN_WVW_LOADFONT
 0001:0007B944      _HB_FUN_WVW_LOADPEN
 0001:0007B600      _HB_FUN_WVW_LOADPICTURE
 0001:00074464      _HB_FUN_WVW_MAXIMIZE
 0001:0007C510      _HB_FUN_WVW_MESSAGEBOX
 0001:000743FC      _HB_FUN_WVW_MINIMIZE
 0001:00071888      _HB_FUN_WVW_NCOLOFS
 0001:00071738      _HB_FUN_WVW_NNUMWINDOWS
 0001:00071C68      _HB_FUN_WVW_NOCLOSE
 0001:00071264      _HB_FUN_WVW_NOPENWINDOW
 0001:00072280      _HB_FUN_WVW_NOSTARTUPSUBWINDOW
 0001:00071818      _HB_FUN_WVW_NROWOFS
 0001:00071780      _HB_FUN_WVW_NSETCURWINDOW
 0001:000737D4      _HB_FUN_WVW_PASTEFROMCLIPBOARD
 0001:0007F234      _HB_FUN_WVW_PBCREATE
 0001:0007F664      _HB_FUN_WVW_PBDESTROY
 0001:0007F850      _HB_FUN_WVW_PBENABLE
 0001:0007F97C      _HB_FUN_WVW_PBSETCODEBLOCK
 0001:0007F77C      _HB_FUN_WVW_PBSETFOCUS
 0001:0007FBE4      _HB_FUN_WVW_PBSETFONT
 0001:0007FAEC      _HB_FUN_WVW_PBSETSTYLE
 0001:0007FEB8      _HB_FUN_WVW_PGCREATE
 0001:00080304      _HB_FUN_WVW_PGDESTROY
 0001:000806C4      _HB_FUN_WVW_PGGETPOS
 0001:00080584      _HB_FUN_WVW_PGSETPOS
 0001:0008041C      _HB_FUN_WVW_PGSETRANGE
 0001:00073558      _HB_FUN_WVW_PROCESSMESSAGES
 0001:00074850      _HB_FUN_WVW_RESTSCREEN
 0001:00074634      _HB_FUN_WVW_SAVESCREEN
 0001:0007C758      _HB_FUN_WVW_SBADDPART
 0001:0007C5D0      _HB_FUN_WVW_SBCREATE
 0001:0007C6CC      _HB_FUN_WVW_SBDESTROY
 0001:0007CD18      _HB_FUN_WVW_SBGETPARTS
 0001:0007CC44      _HB_FUN_WVW_SBGETTEXT
 0001:0007CA5C      _HB_FUN_WVW_SBREFRESH
 0001:0007CB54      _HB_FUN_WVW_SBSETTEXT
 0001:0007352C      _HB_FUN_WVW_SETALTF4CLOSE
 0001:00074580      _HB_FUN_WVW_SETASNORMAL
 0001:00077394      _HB_FUN_WVW_SETBRUSH
 0001:000736EC      _HB_FUN_WVW_SETCLIPBOARD
 0001:00073EB0      _HB_FUN_WVW_SETCODEPAGE
 0001:00071F00      _HB_FUN_WVW_SETDEFLINESPACING
 0001:0007210C      _HB_FUN_WVW_SETDEFLSPACECOLOR
 0001:00073ADC      _HB_FUN_WVW_SETFONT
 0001:00073CA8      _HB_FUN_WVW_SETICON
 0001:00071FB0      _HB_FUN_WVW_SETLINESPACING
 0001:00072184      _HB_FUN_WVW_SETLSPACECOLOR
 0001:000718F8      _HB_FUN_WVW_SETMAINCOORD
 0001:00073068      _HB_FUN_WVW_SETMENU
 0001:0007339C      _HB_FUN_WVW_SETMENUKEYEVENT
 0001:00074010      _HB_FUN_WVW_SETMOUSEMOVE
 0001:0007B1F0      _HB_FUN_WVW_SETMOUSEPOS
 0001:000744CC      _HB_FUN_WVW_SETONTOP
 0001:00071DE8      _HB_FUN_WVW_SETPAINTREFRESH
 0001:000743D4      _HB_FUN_WVW_SETPALETTE
 0001:000772A0      _HB_FUN_WVW_SETPEN
 0001:0007B434      _HB_FUN_WVW_SETPOINTER
 0001:000730E4      _HB_FUN_WVW_SETPOPUPMENU
 0001:0007CD94      _HB_FUN_WVW_SETTIMER
 0001:00073D6C      _HB_FUN_WVW_SETTITLE
 0001:00071E88      _HB_FUN_WVW_SETVERTCARET
 0001:000734BC      _HB_FUN_WVW_SETWINDOWCENTRE
 0001:00073DD4      _HB_FUN_WVW_SETWINDOWPOS
 0001:00071CFC      _HB_FUN_WVW_SETWINSTYLE
 0001:00076874      _HB_FUN_WVW_SHOWWINDOW
 0001:0007DA7C      _HB_FUN_WVW_TBADDBUTTON
 0001:0007DCFC      _HB_FUN_WVW_TBBUTTONCOUNT
 0001:0007E0E0      _HB_FUN_WVW_TBCMD2INDEX
 0001:0007D734      _HB_FUN_WVW_TBCREATE
 0001:0007DD90      _HB_FUN_WVW_TBDELBUTTON
 0001:0007DFCC      _HB_FUN_WVW_TBDESTROY
 0001:0007DE84      _HB_FUN_WVW_TBENABLEBUTTON
 0001:0007E058      _HB_FUN_WVW_TBINDEX2CMD
 0001:00076764      _HB_FUN_WVW_TRACKPOPUPMENU
 0001:000768FC      _HB_FUN_WVW_UPDATEWINDOW
 0001:0007E6D8      _HB_FUN_WVW_XBCREATE
 0001:0007EBD4      _HB_FUN_WVW_XBDESTROY
 0001:0007EF88      _HB_FUN_WVW_XBENABLE
 0001:0007ECEC      _HB_FUN_WVW_XBUPDATE
 0001:00071750      _HB_FUN_WVW_XREPOSWINDOW
 0001:00076DBC      _HB_FUN_WVW__MAKEDLGTEMPLATE
 0001:0002BFE8      _HB_FUN_YEAR
 0001:00045E50      _HB_FUN__ARRAY
 0001:00045F10      _HB_FUN__BLOCK
 0001:00045F28      _HB_FUN__CHARACTER
 0001:00045F40      _HB_FUN__DATE
 0001:00052CB4      _HB_FUN__DBF
 0001:00052AA0      _HB_FUN__DBFC
 0001:00069A70      _HB_FUN__DBFDBT
 0001:00068444      _HB_FUN__DBFNTX
 0001:00053370      _HB_FUN__DELIM
 0001:00052B8C      _HB_FUN__DELIMC
 0001:00045F58      _HB_FUN__LOGICAL
 0001:00036E04      _HB_FUN__NATMSGVER
 0001:00036DF0      _HB_FUN__NATSORTVER
 0001:00045F70      _HB_FUN__NIL
 0001:00045F88      _HB_FUN__NUMERIC
 0001:00045FA0      _HB_FUN__POINTER
 0001:00053400      _HB_FUN__SDF
 0001:00052C14      _HB_FUN__SDFC
 0001:00028DF4      _HB_FUN___BREAKBLOCK
 0001:00045E08      _HB_FUN___CLASSADD
 0001:000089F0      _HB_FUN___CLASSH
 0001:00045E20      _HB_FUN___CLASSINS
 0001:00008868      _HB_FUN___CLASSNAME
 0001:00045DF0      _HB_FUN___CLASSNEW
 0001:00008870      _HB_FUN___CLASSSEL
 0001:00006F64      _HB_FUN___CLSADDMSG
 0001:0000A8C4      _HB_FUN___CLSASSOCTYPE
 0001:00007A80      _HB_FUN___CLSDELMSG
 0001:0000A648      _HB_FUN___CLSGETHANDLEFROMNAME
 0001:0000A1C4      _HB_FUN___CLSGETIVARNAMESANDVALUES
 0001:00009EC4      _HB_FUN___CLSGETPROPERTIES
 0001:00009F84      _HB_FUN___CLSGETPROPERTIESANDVALUES
 0001:00007C04      _HB_FUN___CLSINST
 0001:00008640      _HB_FUN___CLSINSTSUPER
 0001:00007ED4      _HB_FUN___CLSMODMSG
 0001:000080F8      _HB_FUN___CLSMSGASSIGNED
 0001:000070F0      _HB_FUN___CLSNEW
 0001:00008954      _HB_FUN___CLSPARENT
 0001:0000876C      _HB_FUN___CLS_CNTCLSDATA
 0001:000087B8      _HB_FUN___CLS_CNTDATA
 0001:000087F0      _HB_FUN___CLS_DECDATA
 0001:00008828      _HB_FUN___CLS_INCDATA
 0001:00009C1C      _HB_FUN___CLS_PAR00
 0001:00009B60      _HB_FUN___CLS_PARAM
 0001:0004C7A8      _HB_FUN___DBAPP
 0001:0004B390      _HB_FUN___DBARRANGE
 0001:0004866C      _HB_FUN___DBCONTINUE
 0001:0004C824      _HB_FUN___DBCOPY
 0001:0004848C      _HB_FUN___DBLOCATE
 0001:000486E4      _HB_FUN___DBPACK
 0001:00048A94      _HB_FUN___DBSETFOUND
 0001:00048620      _HB_FUN___DBSETLOCATE
 0001:000490F4      _HB_FUN___DBZAP
 0001:0000B8AC      _HB_FUN___DYNSCOUNT
 0001:0000B910      _HB_FUN___DYNSGETINDEX
 0001:0000B8C4      _HB_FUN___DYNSGETNAME
 0001:0000B99C      _HB_FUN___DYNSGETPRF
 0001:0000B94C      _HB_FUN___DYNSISFUN
 0001:0002AE00      _HB_FUN___EJECT
 0001:0000BA2C      _HB_FUN___ERRINHANDLER
 0001:00028E0C      _HB_FUN___ERRORBLOCK
 0001:0000C918      _HB_FUN___ERRRT_BASE
 0001:0000C964      _HB_FUN___ERRRT_SBASE
 0001:00008AE8      _HB_FUN___EVAL
 0001:0004646C      _HB_FUN___GET
 0001:00046484      _HB_FUN___GETA
 0001:00045688      _HB_FUN___GETLISTACTIVE
 0001:000456A0      _HB_FUN___GETLISTLAST
 0001:00045670      _HB_FUN___GETLISTSETACTIVE
 0001:00008928      _HB_FUN___GETMESSAGE
 0001:00009C9C      _HB_FUN___GETMSGPRF
 0001:000463F4      _HB_FUN___GUICOLOR
 0001:00034D10      _HB_FUN___KEYBOARD
 0001:000457D8      _HB_FUN___KILLREAD
 0001:00028E24      _HB_FUN___MINIMALERRORHANDLER
 0001:00027A14      _HB_FUN___MVCLEAR
 0001:00027A24      _HB_FUN___MVDBGINFO
 0001:00027B24      _HB_FUN___MVEXIST
 0001:00027B6C      _HB_FUN___MVGET
 0001:0002777C      _HB_FUN___MVPRIVATE
 0001:00027698      _HB_FUN___MVPUBLIC
 0001:00027C3C      _HB_FUN___MVPUT
 0001:00027914      _HB_FUN___MVRELEASE
 0001:000281E8      _HB_FUN___MVRESTORE
 0001:00027F74      _HB_FUN___MVSAVE
 0001:000279AC      _HB_FUN___MVSCOPE
 0001:000287B4      _HB_FUN___MVSYMBOLINFO
 0001:00027850      _HB_FUN___MVXRELEASE
 0001:0004521C      _HB_FUN___NONOALERT
 0001:00045B98      _HB_FUN___OBJADDACCESSASSIGN
 0001:00045B80      _HB_FUN___OBJADDDATA
 0001:00045B68      _HB_FUN___OBJADDINLINE
 0001:00045B50      _HB_FUN___OBJADDMETHOD
 0001:0000831C      _HB_FUN___OBJCLONE
 0001:00045C28      _HB_FUN___OBJDELDATA
 0001:00045BF8      _HB_FUN___OBJDELINLINE
 0001:00045BE0      _HB_FUN___OBJDELMETHOD
 0001:00045C40      _HB_FUN___OBJDERIVEDFROM
 0001:00008210      _HB_FUN___OBJGETCLSNAME
 0001:00045B20      _HB_FUN___OBJGETDERIVEDDIFF
 0001:00045AC0      _HB_FUN___OBJGETMETHODLIST
 0001:00045AA8      _HB_FUN___OBJGETMSGFULLLIST
 0001:00045A90      _HB_FUN___OBJGETMSGLIST
 0001:00045B08      _HB_FUN___OBJGETVALUEDIFF
 0001:00045AF0      _HB_FUN___OBJGETVALUEFULLLIST
 0001:00045AD8      _HB_FUN___OBJGETVALUELIST
 0001:00045A60      _HB_FUN___OBJHASDATA
 0001:00045A78      _HB_FUN___OBJHASMETHOD
 0001:00008298      _HB_FUN___OBJHASMSG
 0001:00045BC8      _HB_FUN___OBJMODINLINE
 0001:00045BB0      _HB_FUN___OBJMODMETHOD
 0001:00008430      _HB_FUN___OBJSENDMSG
 0001:00008538      _HB_FUN___OBJSENDMSGCASE
 0001:00045C10      _HB_FUN___OBJSETMETHOD
 0001:00045B38      _HB_FUN___OBJSETVALUELIST
 0001:00022B44      _HB_FUN___OPCOUNT
 0001:00022B58      _HB_FUN___OPGETPRF
 0001:00022E74      _HB_FUN___QUIT
 0001:0004CB64      _HB_FUN___RDDGETTEMPALIAS
 0001:0004ADD0      _HB_FUN___RDDSETDEFAULT
 0001:0000898C      _HB_FUN___SENDER
 0001:0003E848      _HB_FUN___SETCENTURY
 0001:0000A880      _HB_FUN___SETCLASSAUTOINIT
 0001:0000A83C      _HB_FUN___SETCLASSSCOPE
 0001:000457F0      _HB_FUN___SETFORMAT
 0001:00028DDC      _HB_FUN___SETHELPK
 0001:00022880      _HB_FUN___SETPROFILER
 0001:000228B4      _HB_FUN___TRACEPRGCALLS
 0001:00022854      _HB_FUN___VMVARGLIST
 0001:00022E44      _HB_FUN___VMVARSGET
 0001:00022E3C      _HB_FUN___VMVARSLEN
 0001:00022E34      _HB_FUN___VMVARSLIST
 0001:00022E4C      _HB_FUN___VMVARSSET
 0001:0004508C      _HB_FUN___XHELP
 0001:00045194      _HB_FUN___XRESTSCREEN
 0001:00045128      _HB_FUN___XSAVESCREEN
 0002:000270A8      _IID_IPicture
 0001:0000520C      _MsgToNum
 0001:0005E4D8      _SimpLex_CheckToken
 0001:0005E868      _SimpLex_CheckWords
 0001:0005DAE0      _SimpLex_GetNextToken
 0001:00002730      _SizeOfCStructure
 0001:00003F04      _StructureToArray
 0001:00042E84      _TraceLog
 0001:0003D830      _Wild2RegEx
 0002:000266D4      __AmPm
 0003:00010B9C      __C0argc
 0003:00010BA0      __C0argv
 0003:00010BA4      __C0environ
 0001:0008CF02      __CurrExcContext
 0002:000266DC      __Days
 0003:00010920      __DestructorCountPtr
 0001:00089A70      __ErrorExit
 0001:00089944      __ErrorMessage
 0001:00089884      __ErrorMessageHelper
 0003:00010BBC      __ExcRegPtr
 0001:000842B8      __ExceptInit
 0002:00025328      __ExceptVarsSize
 0001:000839C3      __ExceptionHandler
 0001:00000059      __GetExceptDLLinfo
 0001:00084304      __GetExceptDLLinfoInternal
 0001:0008BAA4      __Global_unwind
 0003:00010928      __HandlerPtr
 0001:000844A0      __InitDefaultHander
 0002:000266A4      __LMonth
 0002:00026658      __LWeekday
 0001:0008C110      __Local_unwind
 0002:00000200      __PackageInfoTable
 0001:0008C123      __Return_unwind
 0002:00026674      __SMonth
 0002:0002663C      __SWeekday
 0001:000844B4      __SetExceptionHandler
 0001:00084454      __SetUserHandler
 0002:000001EF      __TLS_index
 0002:000001F3      __TLS_index4
 0001:000844C9      __UnsetExceptionHandler
 0001:000844F5      __UnwindException
 0003:0001092C      __UserHandlerPtr
 0002:000266E8      __YDays
 0002:000001FC      ___CPPdebugHook
 0002:000001FC      ___CPPdebugHook_segment
 0002:0002528C      ___CPPexceptionList
 0001:000826D0      ___CRTL_MEM_CheckBorMem
 0001:00082654      ___CRTL_MEM_GetBorMemPtrs
 0001:0008270C      ___CRTL_MEM_Revector
 0001:000827C4      ___CRTL_MEM_UseBorMM
 0001:0008AC34      ___CRTL_TLS_Alloc
 0001:0008AC78      ___CRTL_TLS_ExitThread
 0001:0008AC3C      ___CRTL_TLS_Free
 0001:0008AC80      ___CRTL_TLS_GetInfo
 0001:0008AC4C      ___CRTL_TLS_GetValue
 0001:0008AC70      ___CRTL_TLS_InitThread
 0001:0008AC5C      ___CRTL_TLS_SetValue
 0001:0008342C      ___CRTL_VCLLIB_Linkage
 0001:00083428      ___CRTL_VCL_Init
 0001:00085500      ___DOSerror
 0001:0008432C      ___DefHandler
 0001:00089A60      ___ErrorMessage
 0002:000252A8      ___ExceptStaticXbuff
 0001:000854BC      ___IOerror
 0001:0008B3DF      ___JumpToCatch__
 0001:00085520      ___NTerror
 0001:00000140      ___System__GetTls
 0001:0008C184      ____ExceptionHandler
 0001:00084520      ___access
 0002:00024F28      ___allocated
 0001:0008420C      ___call_terminate
 0001:00084280      ___call_unexpected
 0001:0008455C      ___close
 0002:0002681C      ___debuggerDisableTerminateCallback
 0001:00084502      ___doGlobalUnwind
 0001:000845BC      ___dup
 0001:000845D0      ___dup2
 0001:000846C0      ___eof
 0002:00025290      ___exceptFlags
 0002:000252A4      ___exceptMemAllocVars
 0002:000252A0      ___exceptStaticBuffP
 0001:000852A0      ___fputn
 0001:00085224      ___getfp
 0002:00026254      ___ieee_64_n_inf
 0002:00026264      ___ieee_64_n_nanq
 0002:00026274      ___ieee_64_n_nans
 0002:00026284      ___ieee_64_n_zero
 0002:0002624C      ___ieee_64_p_inf
 0002:0002625C      ___ieee_64_p_nanq
 0002:0002626C      ___ieee_64_p_nans
 0002:0002627C      ___ieee_64_p_zero
 0001:000877C8      ___int64toa
 0002:000001E1      ___isDLL
 0002:000001A8      ___isGUI
 0002:000001E0      ___isVCLPackage
 0001:00084748      ___isatty
 0001:00084778      ___isatty_osfhandle
 0001:000868D0      ___isctype
 0001:00086914      ___iswctype
 0001:0008787C      ___ldtrunc
 0002:00025F10      ___locale
 0001:00087A04      ___longtoa
 0001:00084790      ___lseek
 0001:000871F4      ___matherr
 0001:000857EC      ___mkname
 0001:0008750A      ___nextreal
 0001:00084808      ___open
 0001:00085178      ___openfp
 0001:00084E58      ___org__chdrive
 0001:00083194      ___org__expand
 0001:000855DC      ___org__fgetc
 0001:00087B0C      ___org__matherrl
 0001:0008340C      ___org__msize
 0001:00084D50      ___org__read
 0001:00084D08      ___org__rtl_read
 0001:00084D6C      ___org__rtl_write
 0001:000859F0      ___org__snprintf
 0001:00085A28      ___org__vsnprintf
 0001:00084DB4      ___org__write
 0001:00084DD0      ___org_access
 0001:00087494      ___org_atoi
 0001:0008742C      ___org_atol
 0001:000824D4      ___org_calloc
 0001:000874A4      ___org_ceil
 0001:00084EF4      ___org_close
 0001:00082500      ___org_delete
 0001:00082510      ___org_deletea
 0001:00084EFC      ___org_dup
 0001:00084F04      ___org_eof
 0001:0008754C      ___org_exp
 0001:00084F0C      ___org_fclose
 0001:00084F9C      ___org_fflush
 0001:000855F4      ___org_fgetc
 0001:00085250      ___org_fopen
 0001:0008527C      ___org_fprintf
 0001:000856DC      ___org_fputc
 0001:000826E4      ___org_free
 0001:000853D8      ___org_fseek
 0001:0008543C      ___org_ftell
 0001:0008B2C4      ___org_ftime
 0001:00089E18      ___org_getenv
 0001:0008ADF0      ___org_gmtime
 0001:00085534      ___org_isatty
 0001:00087A94      ___org_itoa
 0001:0008AE08      ___org_localtime
 0001:00087994      ___org_log
 0001:000826D4      ___org_malloc
 0001:00086ABC      ___org_mblen
 0001:00086C80      ___org_mbstowcs
 0001:00086B38      ___org_mbtowc
 0001:00083430      ___org_memchr
 0001:000836E8      ___org_memcmp
 0001:00083450      ___org_memcpy
 0001:00083474      ___org_memmove
 0001:000834C0      ___org_memset
 0001:00087B54      ___org_modf
 0001:00087B84      ___org_pow
 0001:00085880      ___org_printf
 0001:00089D20      ___org_qsort
 0001:0008A8C8      ___org_raise
 0001:000826F4      ___org_realloc
 0001:000858A4      ___org_setmode
 0001:00085910      ___org_setvbuf
 0001:00085990      ___org_snprintf
 0001:00085A88      ___org_sprintf
 0001:00088E68      ___org_sqrt
 0001:00083564      ___org_strcat
 0001:000835A0      ___org_strchr
 0001:00083754      ___org_strdup
 0001:000835F4      ___org_strlen
 0001:00083650      ___org_strncat
 0001:000836C0      ___org_strncmp
 0001:00083788      ___org_strncpy
 0001:000837D8      ___org_strpbrk
 0001:00083804      ___org_strrchr
 0001:00083830      ___org_strstr
 0001:00083884      ___org_strtok
 0001:0008B364      ___org_time
 0001:00087AC4      ___org_ultoa
 0001:00085C0C      ___org_vfprintf
 0001:000859C0      ___org_vsnprintf
 0001:00085AB0      ___org_vsprintf
 0001:00086DE8      ___org_wcstombs
 0001:00086C0C      ___org_wctomb
 0003:00010C0C      ___pCPPdebugHook
 0002:00026498      ___pCallAtExitProcs
 0001:0008B649      ___raiseDebuggerException
 0001:00084A70      ___read
 0001:00087504      ___realcvt
 0002:00025250      ___terminatePTR
 0002:0002529C      ___throwExceptionName
 0002:00025294      ___throwFileName
 0002:00025298      ___throwLineNumber
 0001:0008583C      ___tmpnam
 0002:00025254      ___unexpectdPTR
 0002:000001EE      ___useDynamicTLS
 0001:00087A78      ___utoa
 0001:00085CE0      ___vprinter
 0001:00084BA0      ___write
 0001:00088EA4      ___xcvt
 0001:00089178      ___xcvtw
 0004:00000000      ___xxInfo
 0002:00024F2C      ___xxPersonality
 0001:00089D4C      __abort
 0001:00000000      __acrtused
 0001:00084DD8      __allocbuf
 0003:00010BB0      __argc
 0003:00010B78      __argv
 0002:00026560      __argv0
 0001:00089E8C      __argv_default_expand
 0002:00026558      __argv_expand_ptr
 0001:000897D4      __assert
 0003:000104F4      __bormm_pfn_FreeMem
 0003:000104F8      __bormm_pfn_GetMem
 0003:00010500      __bormm_pfn_HeapAddRef
 0003:00010504      __bormm_pfn_HeapRelease
 0003:000104FC      __bormm_pfn_ReallocMem
 0001:00089E08      __c_exit
 0001:00089DF8      __cexit
 0002:00025390      __cfinfo_get
 0002:000259D0      __chartype
 0001:00084E58      __chdrive
 0001:0008AA24      __cleanup
 0001:000874C0      __clear87
 0002:0002650C      __cmdline_escapes
 0001:000874D4      __control87
 0001:0008A948      __create_shmem
 0001:0008812C      __cvt_init
 0001:00088460      __cvt_initw
 0002:00026804      __daylight
 0002:000261D4      __default87
 0003:00010BB4      __dll_table
 0002:000253A4      __dosErrorToSV
 0003:00010930      __doserrno
 0001:0006981C      __dup_handle
 0003:00010B98      __env_lock
 0003:00010B8C      __environ
 0003:00010B94      __envsize
 0003:00010BD0      __exe_table
 0001:00089DE0      __exit
 0001:0008448C      __exit_except
 0001:00085B94      __exit_streams
 0001:00089F64      __exitargv
 0002:000264AC      __exitargv_ptr
 0002:0002649C      __exitbuf
 0002:000264A0      __exitfopen
 0002:000264A4      __exitopen
 0001:00083194      __expand
 0001:0008A4D4      __expandblock
 0001:000875C5      __f87_Exp
 0001:000875BD      __f87_Exp10
 0001:000875B8      __f87_Exp2
 0001:00087690      __f87_Log
 0001:0008768C      __f87_Log10
 0001:00087688      __f87_Log2
 0001:000855DC      __fgetc
 0002:00025398      __fileinfo
 0001:0008718C      __finite
 0002:00024F08      __firstHeap
 0002:00026290      __floatconvert
 0001:00084CD0      __flushall
 0001:0008501C      __flushout
 0002:0002539C      __fmode
 0002:000253A0      __fmodeptr
 0001:00087720      __fpreset
 0002:00024F14      __freeStart
 0001:00069884      __free_handle
 0001:000827B4      __free_heaps
 0001:00087738      __ftol
 0001:00087760      __fuildq
 0001:00087790      __fuistq
 0001:000877B4      __fxam
 0001:00000066      __getHInstance
 0001:00086674      __getLocaleNumericInfo
 0001:000697D4      __get_handle
 0001:00084E88      __getdrive
 0001:00089590      __getmbcp
 0002:000001F7      __hInstance
 0001:0008A1A0      __handle_exitargv
 0001:0008A048      __handle_setargv
 0001:0008A3C4      __handle_wexitargv
 0001:0008A230      __handle_wsetargv
 0003:0000F0B0      __handles
 0002:00024ED0      __heap_redirector
 0002:00026214      __huge_dble
 0002:00026210      __huge_flt
 0002:0002621C      __huge_ldble
 0002:0002623C      __indefinite
 0001:00089598      __initMBCSTable
 0001:00084474      __init_except
 0001:0008A950      __init_exit_proc
 0001:00069940      __init_handles
 0001:00089EB4      __init_setargv_handlers
 0001:00085AD8      __init_streams
 0001:00089E70      __init_wild_handlers
 0001:00085088      __initfileinfo
 0001:00085078      __initfmode
 0001:00087B3C      __initmatherr
 0001:00082DAC      __internal_free
 0001:00083134      __internal_free_heaps
 0001:00082F1C      __internal_malloc
 0001:00083374      __internal_realloc
 0001:0000005E      __isDLL
 0001:0008AE30      __isDST
 0002:00026634      __isWindows
 0001:000895A8      __ismbcalpha
 0001:000895E8      __ismbcdigit
 0001:00089604      __ismbcspace
 0001:000871AC      __isnan
 0002:000263AC      __kalpha
 0002:000263AE      __kpunct
 0002:00024F0C      __lastHeap
 0002:00024F10      __linktable
 0001:00086FAF      __lldiv
 0001:00087070      __llmod
 0001:00086F8C      __llmul
 0001:00087138      __llshl
 0001:00087154      __llshr
 0001:00087027      __lludiv
 0001:000870EA      __llumod
 0001:00087170      __llushr
 0002:00025BD4      __lower
 0001:00087DFC      __lrand
 0001:00087AE4      __ltoa
 0001:0008696C      __ltolower
 0001:00086A14      __ltoupper
 0001:000869C0      __ltowlower
 0001:00086A68      __ltowupper
 0001:000358F8      __matherr
 0001:00087B0C      __matherrl
 0002:000262A8      __mathwhy
 0002:0002622A      __max_dble
 0002:00026226      __max_flt
 0002:00026232      __max_ldble
 0003:00010A4C      __mbcsCodePage
 0003:00010948      __mbctype
 0001:00089620      __mbsnbcpy
 0001:00089674      __mbsnbicmp
 0001:00089734      __mbsrchr
 0002:00026444      __messagefile
 0002:00026440      __messagefunc
 0001:0008340C      __msize
 0002:00026108      __nextrealptr
 0002:00026170      __nextrealwptr
 0002:00023300      __nfile
 0002:00025394      __notUmask
 0002:00024EF8      __nv_heap_size
 0002:00023304      __openfd
 0003:00010BA8      __oscmd
 0003:00010BAC      __osenv
 0003:00010B6C      __ostype
 0001:0008311C      __phys_avail
 0003:0000E5C0      __pidtab
 0002:000262A0      __pmatherr
 0002:000262A4      __pmatherrl
 0001:000872A4      __pow10
 0001:00087D60      __qdiv10
 0001:00087D88      __qmul10
 0001:00084D50      __read
 0002:00026104      __realcvtptr
 0002:0002616C      __realcvtwptr
 0001:00088478      __round
 0002:00024F20      __rover
 0001:00084D08      __rtl_read
 0001:00084D6C      __rtl_write
 0001:00088970      __scan_init
 0001:00088E50      __scan_initw
 0001:00087516      __scanrslt
 0002:00026110      __scanrsltptr
 0001:00087510      __scantod
 0002:0002610C      __scantodptr
 0002:00026178      __scanwrsltptr
 0002:00026174      __scanwtodptr
 0001:00089EDC      __setargv
 0002:000264B8      __setargv__
 0002:000264A8      __setargv_ptr
 0002:00026580      __setenvp__
 0001:00084428      __setexc
 0001:0008946C      __setmbcp
 0002:00024EFC      __smalloc_threshold
 0001:000859F0      __snprintf
 0001:0008AA90      __startup
 0003:00010BD8      __stkbase
 0002:00025370      __stkchk
 0001:000838EC      __stpcpy
 0002:0001F160      __streams
 0002:000254DC      __sys_errlist
 0002:000255A0      __sys_nerr
 0001:0008A938      __terminate
 0002:00026800      __timezone
 0002:00026240      __tiny_ldble
 0003:00010938      __tmpnum
 0001:0008AF44      __totalsec
 0002:0002628C      __turboFloat
 0002:00026808      __tzname
 0001:0008B0DC      __tzset
 0001:00085BF0      __unlink
 0001:00084444      __unsetexc
 0001:00084468      __unsetuserhandler
 0002:00025CD4      __upper
 0002:00024F00      __virt_chunk_free
 0002:00024F04      __virt_chunk_free2
 0002:00024EF0      __virt_chunk_size
 0002:00024EF4      __virt_chunk_size2
 0002:00024EEC      __virt_heap_size
 0001:00085A28      __vsnprintf
 0003:00010BC8      __wC0argv
 0003:00010BCC      __wC0environ
 0001:00089EA0      __wargv_default_expand
 0002:0002655C      __wargv_expand_ptr
 0002:000264B4      __wexitargv_ptr
 0001:0008354C      __wmemset
 0003:00010BC4      __woscmd
 0003:00010BC0      __wosenv
 0001:00084DB4      __write
 0002:000264B0      __wsetargv_ptr
 0001:0008661C      __xfclose
 0001:0008664C      __xfflush
 0002:0001CC38      _aPairs
 0001:00089D60      _abort
 0001:00084DD0      _access
 0002:0000396C      _argc
 0003:00000DD4      _argv
 0001:00087494      _atoi
 0001:0008742C      _atol
 0002:00001A7C      _b_MouseEnable
 0001:000824D4      _calloc
 0001:000874A4      _ceil
 0001:0008B2AC      _clock
 0001:00084EF4      _close
 0001:00084EFC      _dup
 0001:00084F04      _eof
 0002:0002643C      _errno
 0001:00089DC8      _exit
 0001:0008754C      _exp
 0001:00084F0C      _fclose
 0001:00084F9C      _fflush
 0001:000855F4      _fgetc
 0001:0002DF3C      _file_read
 0001:000876D0      _fmod
 0001:00085250      _fopen
 0001:0008527C      _fprintf
 0001:000856DC      _fputc
 0001:000826E4      _free
 0001:000853D8      _fseek
 0001:0008543C      _ftell
 0001:0008B2C4      _ftime
 0001:00089E18      _getenv
 0001:0008ADF0      _gmtime
 0001:00029110      _hb_AtSkipStrings
 0001:000426A0      _hb_GetDefaultPrinter
 0001:00042774      _hb_GetPrinterNameByPort
 0001:0003E22C      _hb_GetSetStructPtr
 0001:0000D0DC      _hb_GetStack
 0001:0002DBEC      _hb_ParseLine
 0001:00042934      _hb_PrintFileRaw
 0001:00042544      _hb_PrinterExists
 0001:0000AA88      _hb_SetWinMainParameters
 0001:00009758      _hb___msgGetClsData
 0001:00009A84      _hb___msgGetData
 0001:000099CC      _hb___msgGetShrData
 0001:0000987C      _hb___msgSetClsData
 0001:00009AE4      _hb___msgSetData
 0001:00009A10      _hb___msgSetShrData
 0001:0000023C      _hb_arrayAdd
 0001:0000028C      _hb_arrayAddForward
 0001:0000147C      _hb_arrayClone
 0001:00001390      _hb_arrayCopy
 0001:000009D8      _hb_arrayCopyC
 0001:00000414      _hb_arrayDel
 0001:000010F8      _hb_arrayEval
 0001:00000BEC      _hb_arrayFill
 0001:00001678      _hb_arrayFromParams
 0001:00001620      _hb_arrayFromStack
 0001:000005F8      _hb_arrayGet
 0001:00000670      _hb_arrayGetByRef
 0001:00000A30      _hb_arrayGetC
 0001:00000AC4      _hb_arrayGetCLen
 0001:00000A80      _hb_arrayGetCPtr
 0001:000007F0      _hb_arrayGetDL
 0001:000007A4      _hb_arrayGetDS
 0001:00000830      _hb_arrayGetItemPtr
 0001:00000864      _hb_arrayGetL
 0001:00000990      _hb_arrayGetND
 0001:000008A0      _hb_arrayGetNI
 0001:00000954      _hb_arrayGetNInt
 0001:000008DC      _hb_arrayGetNL
 0001:00000918      _hb_arrayGetNLL
 0001:00000B08      _hb_arrayGetPtr
 0001:00000B44      _hb_arrayGetType
 0001:000004A4      _hb_arrayIns
 0001:000002F4      _hb_arrayIsObject
 0001:00000B80      _hb_arrayLast
 0001:000002DC      _hb_arrayLen
 0001:00001760      _hb_arrayMode
 0001:000001B0      _hb_arrayNew
 0001:00001360      _hb_arrayRelease
 0001:000012AC      _hb_arrayReleaseBase
 0001:000016E4      _hb_arrayReleaseGarbage
 0001:00000C64      _hb_arrayScan
 0001:00000530      _hb_arraySet
 0001:00000594      _hb_arraySetForward
 0001:00000314      _hb_arraySize
 0001:000050D4      _hb_arraySort
 0002:000024B0      _hb_bProfiler
 0002:000024B4      _hb_bTracePrgCalls
 0001:0002963C      _hb_backgroundActive
 0001:000292C8      _hb_backgroundAddFunc
 0001:00029518      _hb_backgroundDelFunc
 0001:00029608      _hb_backgroundFind
 0001:000294A4      _hb_backgroundReset
 0001:00029390      _hb_backgroundRun
 0001:0002945C      _hb_backgroundRunSingle
 0001:000294C0      _hb_backgroundShutDown
 0001:00029660      _hb_backgroundTime
 0001:0006102C      _hb_builddate
 0001:00029F1C      _hb_cdpFind
 0001:0002A0F0      _hb_cdpGetFromUTF8
 0001:0002A0AC      _hb_cdpGetU16
 0001:00029B48      _hb_cdpRegister
 0001:0002A5D0      _hb_cdpReleaseAll
 0001:00029F40      _hb_cdpSelect
 0001:00029F58      _hb_cdpSelectID
 0001:0002A238      _hb_cdpStrnToU16
 0001:0002A15C      _hb_cdpStrnToUTF
 0001:00029F7C      _hb_cdpTranslate
 0002:000041CC      _hb_cdp_page
 0001:0002A2FC      _hb_cdpchrcmp
 0001:0002A374      _hb_cdpcmp
 0001:0002A008      _hb_cdpnTranslate
 0001:000065A4      _hb_clsAddMsg
 0001:00009B50      _hb_clsClassesArray
 0001:00009DB8      _hb_clsFinalize
 0001:0000A5F0      _hb_clsGetHandleFromName
 0001:000062D4      _hb_clsHasMsg
 0001:00005470      _hb_clsIsClassRef
 0001:00005B18      _hb_clsIsParent
 0001:00009B58      _hb_clsMaxClasses
 0001:000053E8      _hb_clsReleaseAll
 0001:0000A7EC      _hb_clsSetModule
 0001:0000A43C      _hb_clsSymbolFromFunction
 0002:00001798      _hb_cls_uiArrayClass
 0002:0000179A      _hb_cls_uiBlockClass
 0002:0000179C      _hb_cls_uiCharacterClass
 0002:0000179E      _hb_cls_uiDateClass
 0002:000017A0      _hb_cls_uiLogicalClass
 0002:000017A2      _hb_cls_uiNilClass
 0002:000017A4      _hb_cls_uiNumericClass
 0002:000017A6      _hb_cls_uiPointerClass
 0001:0000AAC0      _hb_cmdargARGC
 0001:0000AAC8      _hb_cmdargARGV
 0001:0000ACC4      _hb_cmdargCheck
 0001:0000AAA8      _hb_cmdargInit
 0001:0000AAD0      _hb_cmdargIsInternal
 0001:0000ACF4      _hb_cmdargNum
 0001:0000AE34      _hb_cmdargProcessVM
 0001:0000ACE0      _hb_cmdargString
 0001:0000B1B8      _hb_codeblockDelete
 0001:0000B254      _hb_codeblockDeleteGarbage
 0001:0000B2F8      _hb_codeblockGetRef
 0001:0000B2D8      _hb_codeblockGetVar
 0001:0000B150      _hb_codeblockMacroNew
 0001:0000AFF0      _hb_codeblockNew
 0001:00026844      _hb_compCodeBlockEnd
 0001:00026804      _hb_compCodeBlockStart
 0001:00061434      _hb_compExprAddListExpr
 0001:000618A8      _hb_compExprAssign
 0001:00057374      _hb_compExprCBVarAdd
 0001:000575E0      _hb_compExprCBVarDel
 0001:0005D410      _hb_compExprCheckMacroVar
 0001:000610B0      _hb_compExprClear
 0001:000610C4      _hb_compExprClone
 0001:0005CD8C      _hb_compExprDelOperator
 0001:000572FC      _hb_compExprDelete
 0001:000610D0      _hb_compExprDescription
 0001:0005735C      _hb_compExprErrorType
 0001:0005732C      _hb_compExprFree
 0001:000575A0      _hb_compExprGenPop
 0001:00057560      _hb_compExprGenPush
 0001:00057520      _hb_compExprGenStatement
 0001:000618C0      _hb_compExprListLen
 0001:00062B40      _hb_compExprListStrip
 0001:00061088      _hb_compExprNew
 0001:000614A8      _hb_compExprNewAlias
 0001:000612E8      _hb_compExprNewAliasExpr
 0001:000612B0      _hb_compExprNewAliasVar
 0001:000616CC      _hb_compExprNewAnd
 0001:00061420      _hb_compExprNewArgList
 0001:00061204      _hb_compExprNewArray
 0001:0005745C      _hb_compExprNewArrayAt
 0001:00061564      _hb_compExprNewBitAnd
 0001:0006157C      _hb_compExprNewBitOr
 0001:000615C4      _hb_compExprNewBitShiftL
 0001:000615AC      _hb_compExprNewBitShiftR
 0001:00061594      _hb_compExprNewBitXOr
 0001:0006116C      _hb_compExprNewCodeBlock
 0001:0006151C      _hb_compExprNewDiv
 0001:00061684      _hb_compExprNewDivEq
 0001:00061114      _hb_compExprNewDouble
 0001:000610FC      _hb_compExprNewDummy
 0001:0006175C      _hb_compExprNewEQ
 0001:00061108      _hb_compExprNewEmpty
 0001:000614BC      _hb_compExprNewEqual
 0001:000616B4      _hb_compExprNewExpEq
 0001:00057400      _hb_compExprNewFunCall
 0001:00061494      _hb_compExprNewFunName
 0001:000611EC      _hb_compExprNewFunRef
 0001:000617BC      _hb_compExprNewGE
 0001:0006178C      _hb_compExprNewGT
 0001:000573F4      _hb_compExprNewIIF
 0001:000617EC      _hb_compExprNewIN
 0001:000617A4      _hb_compExprNewLE
 0001:00061774      _hb_compExprNewLT
 0001:00061714      _hb_compExprNewLike
 0001:0006140C      _hb_compExprNewList
 0001:00061184      _hb_compExprNewLogical
 0001:00061144      _hb_compExprNewLong
 0001:00061258      _hb_compExprNewMacro
 0001:000616FC      _hb_compExprNewMatch
 0001:000611D4      _hb_compExprNewMemVarRef
 0001:000613EC      _hb_compExprNewMethodCall
 0001:000614EC      _hb_compExprNewMinus
 0001:00061654      _hb_compExprNewMinusEq
 0001:00061534      _hb_compExprNewMod
 0001:0006169C      _hb_compExprNewModEq
 0001:00061504      _hb_compExprNewMult
 0001:0006166C      _hb_compExprNewMultEq
 0001:000617D4      _hb_compExprNewNE
 0001:00061804      _hb_compExprNewNegate
 0001:0006119C      _hb_compExprNewNil
 0001:0006172C      _hb_compExprNewNot
 0001:000616E4      _hb_compExprNewOr
 0001:000614D4      _hb_compExprNewPlus
 0001:0006163C      _hb_compExprNewPlusEq
 0001:000615F4      _hb_compExprNewPostDec
 0001:000615DC      _hb_compExprNewPostInc
 0001:0006154C      _hb_compExprNewPower
 0001:00061624      _hb_compExprNewPreDec
 0001:0006160C      _hb_compExprNewPreInc
 0001:00061470      _hb_compExprNewRTVar
 0001:000611AC      _hb_compExprNewSelf
 0001:00061314      _hb_compExprNewSend
 0001:0006133C      _hb_compExprNewSendExp
 0001:00057428      _hb_compExprNewString
 0001:0006145C      _hb_compExprNewVar
 0001:000611BC      _hb_compExprNewVarRef
 0001:000613FC      _hb_compExprNewWithMethodCall
 0001:00061384      _hb_compExprNewWithSend
 0001:000613A8      _hb_compExprNewWithSendExp
 0001:0005CDBC      _hb_compExprPushOperEq
 0001:0005D1B4      _hb_compExprPushPostOp
 0001:0005D084      _hb_compExprPushPreOp
 0001:000626FC      _hb_compExprReduceAnd
 0001:00062950      _hb_compExprReduceBitOp
 0001:0006196C      _hb_compExprReduceDiv
 0001:00062514      _hb_compExprReduceEQ
 0001:00062124      _hb_compExprReduceGE
 0001:0006231C      _hb_compExprReduceGT
 0001:00062A90      _hb_compExprReduceIIF
 0001:00061E70      _hb_compExprReduceIN
 0001:00062220      _hb_compExprReduceLE
 0001:00062418      _hb_compExprReduceLT
 0001:0005D3CC      _hb_compExprReduceList
 0001:00061BD0      _hb_compExprReduceMinus
 0001:000618E0      _hb_compExprReduceMod
 0001:00061AA8      _hb_compExprReduceMult
 0001:00061EEC      _hb_compExprReduceNE
 0001:00062824      _hb_compExprReduceOr
 0001:00061CF8      _hb_compExprReducePlus
 0001:0005D468      _hb_compExprReducePlusStrings
 0001:000574B0      _hb_compExprSetOperand
 0001:000610F0      _hb_compExprType
 0001:0005D2B8      _hb_compExprUseAliasMacro
 0001:0005CF20      _hb_compExprUseOperEq
 0001:0005D244      _hb_compExprUsePreOp
 0001:0005D96C      _hb_compFlexDelete
 0001:0005D90C      _hb_compFlexNew
 0001:00025E08      _hb_compGenJump
 0001:00025E50      _hb_compGenJumpFalse
 0001:00025EDC      _hb_compGenJumpHere
 0001:00025E98      _hb_compGenJumpThere
 0001:00025EF8      _hb_compGenJumpTrue
 0001:000261A4      _hb_compGenMessage
 0001:000261E0      _hb_compGenMessageData
 0001:0002664C      _hb_compGenPCode1
 0001:0002668C      _hb_compGenPCode2
 0001:000266D8      _hb_compGenPCode3
 0001:00026734      _hb_compGenPCode4
 0001:0002679C      _hb_compGenPCodeN
 0001:00026278      _hb_compGenPopAliasedVar
 0001:0002622C      _hb_compGenPopVar
 0001:00026458      _hb_compGenPushAliasedVar
 0001:000265A0      _hb_compGenPushDouble
 0001:000265DC      _hb_compGenPushFunCall
 0001:00026578      _hb_compGenPushLogical
 0001:00026080      _hb_compGenPushLong
 0001:00026430      _hb_compGenPushMemVarRef
 0001:00026618      _hb_compGenPushString
 0001:0002600C      _hb_compGenPushSymbol
 0001:00026398      _hb_compGenPushVar
 0001:000263E4      _hb_compGenPushVarRef
 0001:00025DA8      _hb_compLocalVarGetPos
 0001:00025FBC      _hb_compMemvarGenPCode
 0001:00062B7C      _hb_compReservedName
 0001:0005FBA8      _hb_compStrToNum
 0002:0001C9F4      _hb_comp_ExprTable
 0002:00003948      _hb_comp_bShortCuts
 0001:000572F4      _hb_comperror
 0001:0005D974      _hb_complex
 0001:00053420      _hb_compparse
 0001:0002A8D4      _hb_conInit
 0001:0002A9F8      _hb_conNewLine
 0001:0002AAC0      _hb_conOutAlt
 0001:0002AA68      _hb_conOutErr
 0001:0002AA14      _hb_conOutStd
 0001:0002A988      _hb_conRelease
 0001:00040D6C      _hb_conSetColor
 0001:00040E7C      _hb_conSetCursor
 0001:0004510C      _hb_conXSaveRestRelease
 0001:00061080      _hb_credits
 0001:000312E0      _hb_ctGetClearA
 0001:000312E8      _hb_ctGetClearB
 0001:000323AC      _hb_ctMaxCol
 0001:0003237C      _hb_ctMaxRow
 0001:000312C4      _hb_ctSetClearA
 0001:000312F0      _hb_ctSetClearB
 0001:000323DC      _hb_ctSetCurColor
 0001:00031324      _hb_ctSetPos
 0001:0003101C      _hb_ctShadow
 0001:00032430      _hb_ctWAClose
 0001:000314D0      _hb_ctWBoard
 0001:0003165C      _hb_ctWCenter
 0001:0003175C      _hb_ctWClose
 0001:000323FC      _hb_ctWCurrent
 0001:000318FC      _hb_ctWFormat
 0001:000318A4      _hb_ctWFree
 0001:00031A24      _hb_ctWMode
 0001:00031A74      _hb_ctWMove
 0001:000317D4      _hb_ctWNew
 0001:0003253C      _hb_ctWNum
 0001:00031CBC      _hb_ctWOpen
 0001:00031F14      _hb_ctWSelect
 0001:000325F8      _hb_ctWSetMove
 0001:00032564      _hb_ctWSetShadow
 0001:00032588      _hb_ctWStack
 0001:000325A4      _hb_ctWStep
 0001:0002B304      _hb_dateCDOW
 0001:0002B2DC      _hb_dateCMonth
 0001:0002BB58      _hb_dateDOW
 0001:0002B7E4      _hb_dateDecStr
 0001:0002B548      _hb_dateDecode
 0001:0002B828      _hb_dateEncStr
 0001:0002B438      _hb_dateEncode
 0001:0002B860      _hb_dateFormat
 0001:0003E0CC      _hb_dateSeconds
 0001:0002B738      _hb_dateStrGet
 0001:0002B638      _hb_dateStrPut
 0001:0002BBF0      _hb_dateTimeStr
 0001:0002BBC0      _hb_dateToday
 0001:00052DD0      _hb_dbQSortAdvance
 0001:0005328C      _hb_dbQSortComplete
 0001:00052D70      _hb_dbQSortExit
 0001:00052CCC      _hb_dbQSortInit
 0001:00052A18      _hb_dbfExists
 0001:0004E95C      _hb_dbfGetEGcode
 0001:0004EA2C      _hb_dbfGetMemoBlock
 0001:0004EC38      _hb_dbfLockIdxFile
 0001:0004EB50      _hb_dbfLockIdxGetData
 0001:0004EAB0      _hb_dbfPutMemoBlock
 0001:0000B8A4      _hb_dynsymCount
 0001:0000B7A8      _hb_dynsymEval
 0001:0000B6C0      _hb_dynsymFind
 0001:0000B848      _hb_dynsymFindFromFunction
 0001:0000B65C      _hb_dynsymFindName
 0001:0000B53C      _hb_dynsymGet
 0001:0000B5F8      _hb_dynsymGetCase
 0001:0000B89C      _hb_dynsymItems
 0001:0000B314      _hb_dynsymLog
 0001:0000B3A8      _hb_dynsymNew
 0001:0000B878      _hb_dynsymPos
 0001:0000B7E4      _hb_dynsymRelease
 0001:0000BB58      _hb_errExit
 0001:0000BA24      _hb_errForceLink
 0001:0000BF64      _hb_errGetDescription
 0001:0000BFE4      _hb_errGetFileName
 0001:0000C4E8      _hb_errGetFlags
 0001:0000C074      _hb_errGetGenCode
 0001:0000C0E8      _hb_errGetOperation
 0001:0000C164      _hb_errGetOsCode
 0001:0000C3B8      _hb_errGetProcLine
 0001:0000C33C      _hb_errGetProcName
 0001:0000C1D8      _hb_errGetSeverity
 0001:0000C24C      _hb_errGetSubCode
 0001:0000C2C0      _hb_errGetSubSystem
 0001:0000C474      _hb_errGetTries
 0001:0000BB00      _hb_errInit
 0001:0000CF80      _hb_errInternal
 0001:0000BC04      _hb_errLaunch
 0001:0000BE08      _hb_errLaunchSubst
 0001:0000BB6C      _hb_errNew
 0001:0000C664      _hb_errPutArgs
 0001:0000BF98      _hb_errPutDescription
 0001:0000C018      _hb_errPutFileName
 0001:0000C5A0      _hb_errPutFlags
 0001:0000C0AC      _hb_errPutGenCode
 0001:0000C42C      _hb_errPutModuleName
 0001:0000C11C      _hb_errPutOperation
 0001:0000C19C      _hb_errPutOsCode
 0001:0000C3F0      _hb_errPutProcLine
 0001:0000C370      _hb_errPutProcName
 0001:0000C210      _hb_errPutSeverity
 0001:0000C284      _hb_errPutSubCode
 0001:0000C2F4      _hb_errPutSubSystem
 0001:0000C4AC      _hb_errPutTries
 0001:0000CA28      _hb_errRT_BASE
 0001:0000CB40      _hb_errRT_BASE_Ext1
 0001:0000CBF8      _hb_errRT_BASE_Subst
 0001:0000CD30      _hb_errRT_BASE_SubstR
 0001:0000CEF4      _hb_errRT_DBCMD
 0001:0000CEB0      _hb_errRT_DBCMD_Ext
 0001:0000C6E4      _hb_errRT_New
 0001:0000C7C8      _hb_errRT_New_Subst
 0001:0000CCA8      _hb_errRT_SubstParams
 0001:0000CE68      _hb_errRT_TERM
 0001:0000CF40      _hb_errRT_TOOLS
 0001:0000D0CC      _hb_errRelease
 0001:0000BA7C      _hb_errorBlock
 0001:0000BAAC      _hb_errorHandler
 0001:0000DDB8      _hb_evalBlock
 0001:0000DD68      _hb_evalBlock0
 0001:0000DD8C      _hb_evalBlock1
 0001:0000D984      _hb_evalLaunch
 0001:0000D924      _hb_evalNew
 0001:0000D954      _hb_evalPutParam
 0001:0000DA60      _hb_evalRelease
 0001:0000E1E0      _hb_execFromArray
 0001:0000E5E4      _hb_extIsArray
 0001:0002D8C8      _hb_fileNameConv
 0001:0002D7AC      _hb_fileTrim
 0001:0002D804      _hb_filecase
 0001:0005F130      _hb_fsAddSearchPath
 0001:00032DF4      _hb_fsAttrDecode
 0001:00032CD8      _hb_fsAttrEncode
 0001:00032B9C      _hb_fsAttrFromRaw
 0001:00032C34      _hb_fsAttrToRaw
 0001:0002D480      _hb_fsChDir
 0001:0002D5A4      _hb_fsChDrv
 0001:0002CDAC      _hb_fsClose
 0001:0002CC08      _hb_fsCloseProcess
 0001:0002CF60      _hb_fsCommit
 0001:0002CCBC      _hb_fsCreate
 0001:0002CD34      _hb_fsCreateEx
 0001:0002E638      _hb_fsCreateTemp
 0001:0002D4F0      _hb_fsCurDir
 0001:0002D514      _hb_fsCurDirBuff
 0001:0002D71C      _hb_fsCurDirBuffEx
 0001:0002D6F8      _hb_fsCurDirEx
 0001:0002D6A4      _hb_fsCurDrv
 0001:0002D3B4      _hb_fsDelete
 0001:0002D9D0      _hb_fsDisableWaitLocks
 0001:0002D6E0      _hb_fsEof
 0001:0002DA44      _hb_fsError
 0001:0002D6C8      _hb_fsExtOpen
 0001:0005F340      _hb_fsFNameMerge
 0001:0005F178      _hb_fsFNameSplit
 0001:0002C4E4      _hb_fsFile
 0001:000332C4      _hb_fsFindClose
 0001:00033050      _hb_fsFindFirst
 0001:00033254      _hb_fsFindNext
 0001:0002D67C      _hb_fsIsDevice
 0001:0002C59C      _hb_fsIsDirectory
 0001:0002D610      _hb_fsIsDrv
 0001:0002CF80      _hb_fsLock
 0001:0002D0A4      _hb_fsLockLarge
 0001:0002D444      _hb_fsMkDir
 0001:0002CC44      _hb_fsOpen
 0001:0002C7C8      _hb_fsOpenProcess
 0001:0002DA4C      _hb_fsOsError
 0001:0002C7B0      _hb_fsPOpen
 0001:0002CB9C      _hb_fsProcessValue
 0001:0002CE1C      _hb_fsRead
 0001:0002CED0      _hb_fsReadLarge
 0001:0002D3EC      _hb_fsRename
 0001:0002D4B8      _hb_fsRmDir
 0001:0002D200      _hb_fsSeek
 0001:0002D27C      _hb_fsSeekLarge
 0001:0002CDCC      _hb_fsSetDevMode
 0001:0002DA54      _hb_fsSetError
 0001:0002DA6C      _hb_fsSetIOError
 0001:0002D37C      _hb_fsTell
 0001:0002CE68      _hb_fsWrite
 0001:0002CF04      _hb_fsWriteLarge
 0001:00010BD4      _hb_gcAlloc
 0001:00010F88      _hb_gcCollect
 0001:00010F94      _hb_gcCollectAll
 0001:00010C24      _hb_gcFree
 0001:00010D14      _hb_gcGripDrop
 0001:00010CA0      _hb_gcGripGet
 0001:000111E4      _hb_gcInit
 0001:00010DFC      _hb_gcItemRef
 0001:00010D60      _hb_gcLock
 0001:00011128      _hb_gcReleaseAll
 0001:00011214      _hb_gcSetCollecting
 0001:00010DA8      _hb_gcUnlock
 0002:000021D4      _hb_gc_bReleaseAll
 0001:0005F42C      _hb_getenv
 0001:0003089C      _hb_gtAddGobject
 0001:0002E888      _hb_gtAdjustPos
 0001:0002E8C8      _hb_gtBox
 0001:0002F00C      _hb_gtBoxD
 0001:0002F034      _hb_gtBoxS
 0001:000308F4      _hb_gtClearGobjects
 0001:0002F05C      _hb_gtColorSelect
 0001:0002F260      _hb_gtColorToN
 0001:000306E0      _hb_gtCurrentColor
 0001:000308D0      _hb_gtDestroyGobject
 0001:0002F07C      _hb_gtDispBegin
 0001:0002F098      _hb_gtDispCount
 0001:0002F0A0      _hb_gtDispEnd
 0001:000305A4      _hb_gtDrawShadow
 0001:0002E820      _hb_gtExit
 0001:0002E870      _hb_gtExtendedKeySupport
 0003:00001220      _hb_gtGBackground
 0003:00001218      _hb_gtGForeground
 0001:0002FBA0      _hb_gtGetBlink
 0001:00030A40      _hb_gtGetClipboard
 0001:00030A70      _hb_gtGetClipboardSize
 0001:00030860      _hb_gtGetCloseEvent
 0001:00030838      _hb_gtGetCloseHandler
 0001:0002F154      _hb_gtGetColorStr
 0001:0002F6F0      _hb_gtGetCursor
 0001:0002F7AC      _hb_gtGetPos
 0001:00030880      _hb_gtGetResizeEvent
 0001:00030868      _hb_gtGetShutdownEvent
 0001:00030960      _hb_gtGobjectInside
 0001:000306F4      _hb_gtHandleClose
 0001:00030888      _hb_gtHandleResize
 0001:0003074C      _hb_gtHandleShutdown
 0001:000306D0      _hb_gtIndexedColor
 0001:0002E730      _hb_gtInit
 0001:0002F998      _hb_gtIsColor
 0001:0002F9A0      _hb_gtMaxCol
 0001:0002F9BC      _hb_gtMaxRow
 0001:00030A80      _hb_gtPasteFromClipboard
 0001:0002F10C      _hb_gtPostExt
 0001:0002F0BC      _hb_gtPreExt
 0001:00030A78      _hb_gtProcessMessages
 0001:0002E878      _hb_gtReadKey
 0001:0002F9CC      _hb_gtRectSize
 0001:0002F9F4      _hb_gtRepChar
 0001:0002FADC      _hb_gtRest
 0001:000306A0      _hb_gtResume
 0001:0002FB20      _hb_gtSave
 0001:0002FB64      _hb_gtScrDim
 0001:0003045C      _hb_gtScroll
 0001:0002FBB4      _hb_gtSetBlink
 0001:00030A58      _hb_gtSetClipboard
 0001:00030840      _hb_gtSetCloseEvent
 0001:00030774      _hb_gtSetCloseHandler
 0001:0002F3B8      _hb_gtSetColorStr
 0001:0002F704      _hb_gtSetCursor
 0001:0002FBC8      _hb_gtSetMode
 0001:0002F804      _hb_gtSetPos
 0001:0002F8CC      _hb_gtSetPosContext
 0001:00030870      _hb_gtSetResizeEvent
 0001:00030850      _hb_gtSetShutdownEvent
 0001:0002FC94      _hb_gtSetSnowFlag
 0001:0003066C      _hb_gtSuspend
 0001:00030640      _hb_gtTone
 0001:0003065C      _hb_gtVersion
 0001:0002FC9C      _hb_gtWrite
 0001:0002FEA0      _hb_gtWriteAt
 0001:000300E0      _hb_gtWriteCon
 0001:0006AAE4      _hb_gt_AdjustPos
 0001:0006B304      _hb_gt_Box
 0001:0006B3C4      _hb_gt_BoxD
 0001:0006B484      _hb_gt_BoxS
 0001:0006AA20      _hb_gt_Col
 0001:0006AC00      _hb_gt_DispBegin
 0001:0006AC30      _hb_gt_DispCount
 0001:0006AC18      _hb_gt_DispEnd
 0001:0006A730      _hb_gt_Exit
 0001:0006B84C      _hb_gt_ExtendedKeySupport
 0001:0006B2DC      _hb_gt_GetBlink
 0001:0006BCBC      _hb_gt_GetClipboard
 0001:0006BDF8      _hb_gt_GetClipboardSize
 0001:0006AAF4      _hb_gt_GetCursorStyle
 0001:0006A9F4      _hb_gt_GetScreenHeight
 0001:0006A9C8      _hb_gt_GetScreenWidth
 0001:0006AD1C      _hb_gt_GetText
 0001:0006B544      _hb_gt_HorizLine
 0001:0006A5FC      _hb_gt_Init
 0001:0006AAEC      _hb_gt_IsColor
 0001:0006B830      _hb_gt_OutErr
 0001:0006B814      _hb_gt_OutStd
 0001:0006B80C      _hb_gt_PostExt
 0001:0006B804      _hb_gt_PreExt
 0001:0006BE74      _hb_gt_ProcessMessages
 0001:0006AD84      _hb_gt_PutText
 0001:0006AC48      _hb_gt_Puts
 0001:0006B850      _hb_gt_ReadKey
 0001:0006AD08      _hb_gt_RectSize
 0001:0006ACA8      _hb_gt_Replicate
 0001:0006B7FC      _hb_gt_Resume
 0001:0006AA4C      _hb_gt_Row
 0001:0006AE54      _hb_gt_Scroll
 0001:0006ADEC      _hb_gt_SetAttribute
 0001:0006B2E4      _hb_gt_SetBlink
 0001:0006BD64      _hb_gt_SetClipboard
 0001:0006AAFC      _hb_gt_SetCursorStyle
 0001:0006B2A4      _hb_gt_SetMode
 0001:0006AA78      _hb_gt_SetPos
 0001:0006B7F4      _hb_gt_Suspend
 0001:0006B9E0      _hb_gt_Tone
 0001:0006B2EC      _hb_gt_Version
 0001:0006B68C      _hb_gt_VertLine
 0002:00004368      _hb_gt_gcoldefs
 0001:00030920      _hb_gt_gcolorFromString
 0001:0006C2D8      _hb_gt_gfxPrimitive
 0001:0006C960      _hb_gt_gfxText
 0003:000011F4      _hb_gt_gobjects
 0003:000011F8      _hb_gt_gobjects_end
 0001:00030A38      _hb_gt_hasChanged
 0001:0006BE8C      _hb_gt_info
 0002:00001A80      _hb_hInstance
 0002:00001A84      _hb_hPrevInstance
 0001:000115C0      _hb_hashAdd
 0001:00011A84      _hb_hashAddForward
 0001:00012140      _hb_hashClone
 0001:00011FF4      _hb_hashGet
 0001:00012994      _hb_hashGetKeyAt
 0001:000127CC      _hb_hashGetKeys
 0001:00012A00      _hb_hashGetValueAt
 0001:000128B0      _hb_hashGetValues
 0001:00011E84      _hb_hashLen
 0001:00012230      _hb_hashMerge
 0001:00011510      _hb_hashNew
 0001:000120BC      _hb_hashPreallocate
 0001:000126DC      _hb_hashRelease
 0001:00012634      _hb_hashReleaseBase
 0001:0001274C      _hb_hashReleaseGarbage
 0001:00011CD8      _hb_hashRemove
 0001:00011C3C      _hb_hashScan
 0001:00011E9C      _hb_hashSet
 0001:00011F44      _hb_hashSetForward
 0001:00014B74      _hb_i18nExit
 0001:00014A9C      _hb_i18nInit
 0001:00013DB0      _hb_i18n_build_table_filename
 0001:000142D4      _hb_i18n_load_language
 0001:00014068      _hb_i18n_read_table
 0001:00013E54      _hb_i18n_read_table_header
 0001:00013CAC      _hb_i18n_scan_table
 0001:000141E8      _hb_i18n_write_table
 0001:00013F94      _hb_i18n_write_table_header
 0003:00000000      _hb_iCmdShow
 0001:000343B0      _hb_idleAddFunc
 0001:00034480      _hb_idleDelFunc
 0001:000342D4      _hb_idleReset
 0001:000342F8      _hb_idleShutDown
 0001:00034344      _hb_idleSleep
 0001:00034220      _hb_idleState
 0001:00034770      _hb_inkey
 0001:00034F94      _hb_inkeyExit
 0001:00034854      _hb_inkeyLast
 0001:00034888      _hb_inkeyNext
 0001:00034914      _hb_inkeyPoll
 0001:00034DE0      _hb_inkeyPut
 0001:00034984      _hb_inkeyReset
 0001:00034F8C      _hb_inkeyTranslate
 0001:000424F0      _hb_isLegacyDevice
 0001:00033D98      _hb_isService
 0001:000605C4      _hb_iswinnt
 0001:00022F5C      _hb_itemArrayGet
 0001:00022F3C      _hb_itemArrayNew
 0001:00022F80      _hb_itemArrayPut
 0001:000246F0      _hb_itemClear
 0001:00024808      _hb_itemCopy
 0001:00023034      _hb_itemCopyC
 0001:0000DAA0      _hb_itemDo
 0001:0000DBFC      _hb_itemDoC
 0001:0000DC7C      _hb_itemDoCRef
 0001:0002461C      _hb_itemForwardValue
 0001:00023070      _hb_itemFreeC
 0001:00022FB8      _hb_itemGetC
 0001:00023018      _hb_itemGetCLen
 0001:00022FFC      _hb_itemGetCPtr
 0001:000230BC      _hb_itemGetDL
 0001:0002308C      _hb_itemGetDS
 0001:000230D8      _hb_itemGetL
 0001:00023158      _hb_itemGetND
 0001:000231D4      _hb_itemGetNI
 0001:00024554      _hb_itemGetNInt
 0001:00023244      _hb_itemGetNL
 0001:00024350      _hb_itemGetNLL
 0001:00023750      _hb_itemGetNLen
 0001:000232B4      _hb_itemGetPtr
 0001:00022E94      _hb_itemNew
 0001:00022EF0      _hb_itemPCount
 0001:00024280      _hb_itemPadConv
 0001:00022EA4      _hb_itemParam
 0001:00024E70      _hb_itemParamId
 0001:00022ED8      _hb_itemParamPtr
 0001:000245C8      _hb_itemPushForward
 0001:00024C48      _hb_itemPushStaticString
 0001:000248AC      _hb_itemPutC
 0001:0002497C      _hb_itemPutCL
 0001:00024B8C      _hb_itemPutCLStatic
 0001:00024A38      _hb_itemPutCPtr
 0001:00024A94      _hb_itemPutCRaw
 0001:00024AEC      _hb_itemPutCRawStatic
 0001:00024B30      _hb_itemPutCStatic
 0001:00023308      _hb_itemPutD
 0001:00023350      _hb_itemPutDL
 0001:000232CC      _hb_itemPutDS
 0001:00023388      _hb_itemPutL
 0001:000233C0      _hb_itemPutND
 0001:000235E0      _hb_itemPutNDLen
 0001:0002343C      _hb_itemPutNI
 0001:00023690      _hb_itemPutNILen
 0001:000244B4      _hb_itemPutNInt
 0001:00024500      _hb_itemPutNIntLen
 0001:0002348C      _hb_itemPutNL
 0001:000243C4      _hb_itemPutNLL
 0001:00024434      _hb_itemPutNLLLen
 0001:000236F0      _hb_itemPutNLLen
 0001:000234DC      _hb_itemPutNLen
 0001:00024BD0      _hb_itemPutPtr
 0001:00024C0C      _hb_itemPutPtrGC
 0001:00022F20      _hb_itemRelease
 0001:000246A4      _hb_itemReleaseString
 0001:00024664      _hb_itemReturn
 0001:00024684      _hb_itemReturnCopy
 0001:00022FA0      _hb_itemSetCMemo
 0001:000237CC      _hb_itemSize
 0001:00023FDC      _hb_itemStr
 0001:00023B3C      _hb_itemStrBuf
 0001:00023A0C      _hb_itemStrCmp
 0001:000240AC      _hb_itemString
 0001:000247C8      _hb_itemSwap
 0001:00023808      _hb_itemType
 0001:0002381C      _hb_itemTypeStr
 0001:00023914      _hb_itemUnRef
 0001:0002392C      _hb_itemUnRefOnce
 0001:0002430C      _hb_itemValToStr
 0001:00035650      _hb_langDGetErrorDesc
 0001:000355B8      _hb_langDGetItem
 0001:0003550C      _hb_langDeRegister
 0001:00035534      _hb_langFind
 0001:000355DC      _hb_langID
 0001:000355F4      _hb_langName
 0001:000354BC      _hb_langRegister
 0001:00035558      _hb_langSelect
 0001:00035594      _hb_langSelectID
 0001:00035460      _hb_lang_ForceLink
 0001:000258A4      _hb_macroCompile
 0001:00024F3C      _hb_macroDelete
 0001:000267F0      _hb_macroError
 0001:00025878      _hb_macroExpandString
 0001:00025A50      _hb_macroGetType
 0001:00025408      _hb_macroGetValue
 0001:00025168      _hb_macroIsIdent
 0001:00025624      _hb_macroPopAliasedValue
 0001:00025640      _hb_macroPushAliasedValue
 0001:00025900      _hb_macroPushSymbol
 0001:00025054      _hb_macroRun
 0001:00025BD4      _hb_macroSetMacro
 0001:0002555C      _hb_macroSetValue
 0001:000251E4      _hb_macroTextSubst
 0001:00025A10      _hb_macroTextValue
 0001:000572C4      _hb_macroYYParse
 0001:00035A00      _hb_mathGetErrMode
 0001:00035C30      _hb_mathGetHandler
 0001:00035874      _hb_mathGetLastError
 0001:000358F0      _hb_mathIsMathErr
 0001:0003582C      _hb_mathResetError
 0001:000359EC      _hb_mathSetErrMode
 0001:00035C1C      _hb_mathSetHandler
 0001:00035A54      _hb_matherr
 0001:00010520      _hb_mem2str
 0001:0002715C      _hb_memvarCreateFromItem
 0001:00026BE8      _hb_memvarDetachLocal
 0001:00026E84      _hb_memvarGet
 0001:00026C6C      _hb_memvarGetPrivatesBase
 0001:00026F64      _hb_memvarGetRefer
 0001:000270EC      _hb_memvarGetStrValuePtr
 0001:00026EF0      _hb_memvarGetValue
 0001:0002870C      _hb_memvarGetValueByHandle
 0001:000286F0      _hb_memvarGetVarHandle
 0001:000270D0      _hb_memvarNewParameter
 0001:00027568      _hb_memvarReleasePublic
 0001:00027498      _hb_memvarScope
 0001:00026C80      _hb_memvarSetPrivatesBase
 0001:00026DC8      _hb_memvarSetValue
 0001:00026B08      _hb_memvarValueBaseAddress
 0001:00026D78      _hb_memvarValueDecGarbageRef
 0001:00026D30      _hb_memvarValueDecRef
 0001:00026CD8      _hb_memvarValueIncRef
 0001:00026B10      _hb_memvarValueNew
 0001:000269F4      _hb_memvarsInit
 0001:000286B4      _hb_memvarsIsMemvarRef
 0001:00026A48      _hb_memvarsRelease
 0001:000368CC      _hb_mouseCol
 0001:00036904      _hb_mouseCountButton
 0001:0003692C      _hb_mouseGetBounds
 0001:0003689C      _hb_mouseGetCursor
 0001:000368F4      _hb_mouseIsButtonPressed
 0001:00036894      _hb_mouseIsPresent
 0001:000368D4      _hb_mouseRow
 0001:0003690C      _hb_mouseSetBounds
 0001:000368A4      _hb_mouseSetCursor
 0001:000368DC      _hb_mouseSetPos
 0001:0006BB30      _hb_mouse_Col
 0001:0006BCA4      _hb_mouse_CountButton
 0001:0006BB18      _hb_mouse_Exit
 0001:0006BCB4      _hb_mouse_GetBounds
 0001:0006BB2C      _hb_mouse_Hide
 0001:0006BB10      _hb_mouse_Init
 0001:0006BC58      _hb_mouse_IsButtonPressed
 0001:0006BB20      _hb_mouse_IsPresent
 0001:0006BB88      _hb_mouse_Row
 0001:0006BCAC      _hb_mouse_SetBounds
 0001:0006BBE0      _hb_mouse_SetPos
 0001:0006BB28      _hb_mouse_Show
 0001:00009DA4      _hb_mthAddTime
 0001:00036C8C      _hb_nationGetMsg
 0001:0005F744      _hb_numInt
 0001:0005F660      _hb_numRound
 0001:00005BEC      _hb_objGetClass
 0001:00005C0C      _hb_objGetClsName
 0001:00005FE0      _hb_objGetMethod
 0001:00005FFC      _hb_objGetMthd
 0001:00005CB8      _hb_objGetRealCls
 0001:00005F14      _hb_objGetRealClsName
 0001:000063E0      _hb_objGetpMethod
 0001:00006574      _hb_objHasMsg
 0001:00008368      _hb_objSendMsg
 0001:000083E0      _hb_objSendSymbol
 0001:0000E4F8      _hb_param
 0001:0000E5BC      _hb_paramError
 0001:0000E67C      _hb_parc
 0001:0000E7F4      _hb_parclen
 0001:0000E8B0      _hb_parcsiz
 0001:0000E738      _hb_parcx
 0001:0000EB18      _hb_pardl
 0001:0000E96C      _hb_pards
 0001:0000EA48      _hb_pardsbuff
 0001:0000F298      _hb_parinfa
 0001:0000F2D8      _hb_parinfo
 0001:0000EBD8      _hb_parl
 0001:0000ED24      _hb_parnd
 0001:0000EE2C      _hb_parni
 0001:0000F038      _hb_parnint
 0001:0000EF2C      _hb_parnl
 0001:0000FF54      _hb_parnll
 0001:0000F208      _hb_parpointer
 0001:0000F14C      _hb_parptr
 0001:0000F3DC      _hb_pcount
 0001:00028900      _hb_procinfo
 0001:0003395C      _hb_random_num
 0001:00047280      _hb_rddAllocWorkAreaAlias
 0001:000475AC      _hb_rddFieldGet
 0001:00047520      _hb_rddFieldIndex
 0001:000475F4      _hb_rddFieldPut
 0001:00047310      _hb_rddGetCurrentWorkAreaNumber
 0001:00047518      _hb_rddGetCurrentWorkAreaPointer
 0001:0004763C      _hb_rddGetFieldValue
 0001:0004CB1C      _hb_rddGetTempAlias
 0001:00046A94      _hb_rddInherit
 0001:00047024      _hb_rddInsertAreaNode
 0001:00047570      _hb_rddIterateWorkAreas
 0001:000476BC      _hb_rddPutFieldValue
 0001:00046D68      _hb_rddReleaseCurrentArea
 0001:00047480      _hb_rddSelectWorkAreaAlias
 0001:00047318      _hb_rddSelectWorkAreaNumber
 0001:000473AC      _hb_rddSelectWorkAreaSymbol
 0001:00046FBC      _hb_rddShutDown
 0001:0003D2B4      _hb_regex
 0001:0000F40C      _hb_ret
 0001:0000F430      _hb_reta
 0001:0000F448      _hb_retc
 0001:00024CA8      _hb_retcAdopt
 0001:00024DEC      _hb_retcAdoptStatic
 0001:0000F460      _hb_retclen
 0001:00024CF8      _hb_retclenAdopt
 0001:00024D54      _hb_retclenAdoptRaw
 0001:00024DA0      _hb_retclenAdoptRawStatic
 0001:00024E30      _hb_retclenAdoptStatic
 0001:0000F494      _hb_retd
 0001:0000F4B4      _hb_retdl
 0001:0000F47C      _hb_retds
 0001:0000F4CC      _hb_retl
 0001:0000F4F0      _hb_retnd
 0001:0000F558      _hb_retndlen
 0001:0000F508      _hb_retni
 0001:0000F578      _hb_retnilen
 0001:0000F5E0      _hb_retnint
 0001:0000F5F8      _hb_retnintlen
 0001:0000F520      _hb_retnl
 0001:0000F538      _hb_retnlen
 0001:00010034      _hb_retnll
 0001:0000F594      _hb_retnllen
 0001:0001004C      _hb_retnlllen
 0001:0000F5B0      _hb_retptr
 0001:0000F5C8      _hb_retptrGC
 0001:0003E138      _hb_secondsCPU
 0001:00033DA0      _hb_serviceExit
 0003:0000133C      _hb_set
 0001:00040D64      _hb_setGetFirstSetPath
 0001:00040880      _hb_setInitialize
 0001:00034874      _hb_setInkeyLast
 0001:00040CA0      _hb_setListenerAdd
 0001:00040CEC      _hb_setListenerNotify
 0001:00040D18      _hb_setListenerRemove
 0001:00040B98      _hb_setRelease
 0001:0003E770      _hb_set_SetPrinterStart
 0001:0003E7B8      _hb_set_SetPrinterStop
 0002:000059E8      _hb_set_ptr
 0001:00040EE8      _hb_setkeyExit
 0001:00040EE0      _hb_setkeyInit
 0001:00041780      _hb_spCreate
 0001:000417E4      _hb_spCreateEx
 0001:00041628      _hb_spFile
 0001:00041738      _hb_spOpen
 0003:0000000C      _hb_stack
 0001:0000D518      _hb_stackBaseItem
 0001:0000D458      _hb_stackBaseOffset
 0001:0000D130      _hb_stackDec
 0001:0000D7C0      _hb_stackDispCall
 0001:0000D534      _hb_stackDispLocal
 0001:0000D2A0      _hb_stackFree
 0001:0000D1E0      _hb_stackIncrease
 0001:0000D250      _hb_stackInit
 0001:0000D470      _hb_stackItem
 0001:0000D4C8      _hb_stackItemFromBase
 0001:0000D49C      _hb_stackItemFromTop
 0001:0000D308      _hb_stackNewFrame
 0001:0000D390      _hb_stackOldFrame
 0001:0000D0E4      _hb_stackPop
 0001:0000D158      _hb_stackPush
 0001:0000D2E4      _hb_stackRemove
 0001:0000D52C      _hb_stackReturnItem
 0001:0000D520      _hb_stackSelfItem
 0001:0000D510      _hb_stackTopItem
 0001:0000D440      _hb_stackTopOffset
 0002:00001D38      _hb_stack_ptr
 0001:0000F614      _hb_storc
 0001:0000F6D4      _hb_storclen
 0001:0000F79C      _hb_storclenAdopt
 0001:0000F924      _hb_stordl
 0001:0000F864      _hb_stords
 0001:0000F9E4      _hb_storl
 0001:0000FD0C      _hb_stornd
 0001:0000FABC      _hb_storni
 0001:0000FC3C      _hb_stornint
 0001:0000FB7C      _hb_stornl
 0001:0000FE90      _hb_stornll
 0001:0000FDD0      _hb_storptr
 0001:0005F460      _hb_strAt
 0001:00041E84      _hb_strEmpty
 0001:000445B8      _hb_strLTrim
 0001:00041A9C      _hb_strLower
 0001:00041B00      _hb_strLowerCopy
 0001:000445E4      _hb_strRTrimLen
 0001:0005FC00      _hb_strToNum
 0001:00041C28      _hb_strUpper
 0001:00041B94      _hb_strUpperCopy
 0001:0005FC50      _hb_strVal
 0001:0005FC88      _hb_strValInt
 0001:0005F4E0      _hb_strdup
 0001:0005F510      _hb_stricmp
 0001:0005FE84      _hb_stripOutComments
 0001:0005FC2C      _hb_strnToNum
 0001:0005FD14      _hb_strncat
 0001:0005FCD8      _hb_strncpy
 0001:0005FE1C      _hb_strncpyTrim
 0001:0005FD50      _hb_strncpyUpper
 0001:0005FD9C      _hb_strncpyUpperTrim
 0001:00041EBC      _hb_strnicmp
 0001:0005F4B8      _hb_strupr
 0002:000017A8      _hb_symDestructor
 0002:000024B8      _hb_symEval
 0001:0000B348      _hb_symbolNew
 0002:0001D850      _hb_tr_file_
 0001:0005FFFC      _hb_tr_level
 0002:0001D858      _hb_tr_level_
 0002:0001D854      _hb_tr_line_
 0001:000600F0      _hb_tr_trace
 0001:00042E80      _hb_traceExit
 0001:00042E38      _hb_traceInit
 0001:0005FFDC      _hb_tracelevel
 0001:0005FFBC      _hb_tracestate
 0003:000004C0      _hb_ulOpcodesCalls
 0003:0000075C      _hb_ulOpcodesTime
 0002:00004178      _hb_uniTbl_437
 0001:0005FBD8      _hb_valStrnToNum
 0001:000606C0      _hb_verBuildInfo
 0001:000605EC      _hb_verCompiler
 0001:00060678      _hb_verHarbour
 0001:000606A0      _hb_verPCode
 0001:000601E4      _hb_verPlatform
 0001:0001F5FC      _hb_vmDo
 0001:00022298      _hb_vmDoExitFunctions
 0001:0002013C      _hb_vmEvalBlock
 0001:000201B4      _hb_vmEvalBlockOrMacro
 0001:00020164      _hb_vmEvalBlockV
 0001:00015228      _hb_vmExecute
 0001:0002222C      _hb_vmExplicitStartup
 0001:000223C0      _hb_vmFindModule
 0001:000223DC      _hb_vmFindModuleByName
 0001:0002241C      _hb_vmForceLink
 0001:00020258      _hb_vmFunction
 0001:00014E08      _hb_vmInit
 0001:00022848      _hb_vmIsGlobalRef
 0001:00022720      _hb_vmIsLocalRef
 0001:000227C4      _hb_vmIsStaticRef
 0001:00022214      _hb_vmLastModule
 0001:0001F2B4      _hb_vmOperatorCall
 0001:0001F3D0      _hb_vmOperatorCallUnary
 0001:000228E8      _hb_vmProcessDllSymbols
 0001:00021FCC      _hb_vmProcessSymbols
 0001:0002071C      _hb_vmPush
 0001:000229CC      _hb_vmPushBaseArray
 0001:00020D38      _hb_vmPushDate
 0001:00020BD0      _hb_vmPushDouble
 0001:00020968      _hb_vmPushInteger
 0001:000207B0      _hb_vmPushLogical
 0001:00020A28      _hb_vmPushLong
 0001:00020770      _hb_vmPushNil
 0001:00020814      _hb_vmPushNumType
 0001:000207F8      _hb_vmPushNumber
 0001:00020D80      _hb_vmPushPointer
 0001:00020DCC      _hb_vmPushString
 0001:00020E5C      _hb_vmPushSymbol
 0001:00015070      _hb_vmQuit
 0001:000227D0      _hb_vmRegisterGlobals
 0001:0001503C      _hb_vmReleaseLocalSymbols
 0001:00022490      _hb_vmRequestBreak
 0001:000224E0      _hb_vmRequestCancel
 0001:000225C0      _hb_vmRequestDebug
 0001:00022484      _hb_vmRequestEndProc
 0001:000224D8      _hb_vmRequestQuery
 0001:00022478      _hb_vmRequestQuit
 0001:000225B4      _hb_vmRequestReset
 0001:0001F910      _hb_vmSend
 0001:00022E7C      _hb_vmSymbolInit_RT
 0001:0002220C      _hb_vmSymbols
 0002:000028E8      _hb_vm_BreakBlock
 0003:00000BAC      _hb_vm_aEnumCollection
 0003:00000A28      _hb_vm_aWithObject
 0002:000024DC      _hb_vm_acAscii
 0003:0000047C      _hb_vm_aiExtraElements
 0003:000003FC      _hb_vm_aiExtraParams
 0003:00000D2C      _hb_vm_apEnumVar
 0003:0000043C      _hb_vm_apExtraParamsSymbol
 0003:00000D6C      _hb_vm_awEnumIndex
 0002:000048FC      _hb_vm_bCollectGarbage
 0002:000028DC      _hb_vm_bWithObject
 0002:000024AC      _hb_vm_iExtraElements
 0002:000024A8      _hb_vm_iExtraElementsIndex
 0003:000004BC      _hb_vm_iExtraIndex
 0002:000024A4      _hb_vm_iExtraParamsIndex
 0002:000028E4      _hb_vm_iTry
 0003:00000DB0      _hb_vm_pFinally
 0003:00000DAC      _hb_vm_pSequence
 0002:000024D8      _hb_vm_sNull
 0002:000028E0      _hb_vm_wEnumCollectionCounter
 0003:00000BA8      _hb_vm_wWithObjectCounter
 0001:0004D370      _hb_waAddField
 0001:0004D844      _hb_waAlias
 0001:0004D1D8      _hb_waBof
 0001:0004DDA0      _hb_waChildEnd
 0001:0004DE08      _hb_waChildStart
 0001:0004E0C8      _hb_waClearFilter
 0001:0004E100      _hb_waClearLocate
 0001:0004DE44      _hb_waClearRel
 0001:0004D928      _hb_waClose
 0001:0004E290      _hb_waCompile
 0001:0004D414      _hb_waCreateFields
 0001:0004D1EC      _hb_waEof
 0001:0004E2C4      _hb_waError
 0001:0004DC40      _hb_waEval
 0001:0004E32C      _hb_waEvalBlock
 0001:0004D620      _hb_waFieldCount
 0001:0004D634      _hb_waFieldInfo
 0001:0004D7B4      _hb_waFieldName
 0001:0004E194      _hb_waFilterText
 0001:0004D200      _hb_waFound
 0001:0004D978      _hb_waInfo
 0001:0004DB40      _hb_waNewArea
 0001:0004DB68      _hb_waOrderCondition
 0001:0004DB20      _hb_waOrderInfo
 0001:0004DEB8      _hb_waRelArea
 0001:0004DF04      _hb_waRelEval
 0001:0004E008      _hb_waRelText
 0001:0004DBE0      _hb_waRelease
 0001:0004D7FC      _hb_waSetFieldExtent
 0001:0004E1B4      _hb_waSetFilter
 0001:0004E1FC      _hb_waSetLocate
 0001:0004E058      _hb_waSetRel
 0001:0004D214      _hb_waSkip
 0001:0004D290      _hb_waSkipFilter
 0001:0004DC20      _hb_waStructSize
 0001:0004DE18      _hb_waSyncChildren
 0001:0004DC30      _hb_waSysName
 0001:0004DD78      _hb_waTrans
 0001:0004DD8C      _hb_waTransRec
 0001:0006FA18      _hb_wvw_gtAddCharToInputQueue
 0001:00072B8C      _hb_wvw_gtDestroyPicture
 0001:000726C4      _hb_wvw_gtDoProcessMessages
 0001:00072BEC      _hb_wvw_gtDrawBoxRaised
 0001:00072DDC      _hb_wvw_gtDrawBoxRecessed
 0001:0007272C      _hb_wvw_gtDrawImage
 0001:00072FB8      _hb_wvw_gtDrawOutline
 0001:00072704      _hb_wvw_gtEnableShortCuts
 0001:00072BB8      _hb_wvw_gtGetColorData
 0001:00072BA8      _hb_wvw_gtGetGlobalData
 0001:000723D0      _hb_wvw_gtGetLastMenuEvent
 0001:00072614      _hb_wvw_gtGetWindowHandle
 0001:000724E4      _hb_wvw_gtGetWindowTitle
 0001:0006EBB4      _hb_wvw_gtGetXYFromColRow
 0001:00072968      _hb_wvw_gtLoadPicture
 0001:0007262C      _hb_wvw_gtPostMessage
 0001:00072A10      _hb_wvw_gtRenderPicture
 0001:0007236C      _hb_wvw_gtResetWindow
 0001:000726B0      _hb_wvw_gtSetAltF4Close
 0001:00072308      _hb_wvw_gtSetCentreWindow
 0001:00072394      _hb_wvw_gtSetCodePage
 0001:00072BC8      _hb_wvw_gtSetColorData
 0001:00072508      _hb_wvw_gtSetFont
 0001:000722DC      _hb_wvw_gtSetMenuKeyEvent
 0001:000726DC      _hb_wvw_gtSetMouseMove
 0001:00072408      _hb_wvw_gtSetWindowIcon
 0001:00072480      _hb_wvw_gtSetWindowIconFromFile
 0001:00072654      _hb_wvw_gtSetWindowPos
 0001:000723E8      _hb_wvw_gtSetWindowTitle
 0001:00010068      _hb_xalloc
 0001:000105F8      _hb_xexit
 0001:00010444      _hb_xfree
 0001:000101C4      _hb_xgrab
 0001:0001051C      _hb_xinit
 0001:0001091C      _hb_xquery
 0001:0001032C      _hb_xrealloc
 0001:00010510      _hb_xsize
 0001:0005F564      _hb_xstrcat
 0001:0005F5A8      _hb_xstrcpy
 0001:000866C8      _isalnum
 0001:000866F4      _isalpha
 0001:000866E0      _isascii
 0001:00085534      _isatty
 0001:0008670C      _iscntrl
 0001:00086720      _isdigit
 0001:00086734      _isgraph
 0001:0008674C      _islower
 0001:00086760      _isprint
 0001:00086778      _ispunct
 0001:0008678C      _isspace
 0001:000867A0      _isupper
 0001:000867CC      _iswalnum
 0001:000867F8      _iswalpha
 0001:000867E4      _iswascii
 0001:00086810      _iswcntrl
 0001:00086824      _iswdigit
 0001:00086838      _iswgraph
 0001:00086850      _iswlower
 0001:00086864      _iswprint
 0001:0008687C      _iswpunct
 0001:00086890      _iswspace
 0001:000868A4      _iswupper
 0001:000868B8      _iswxdigit
 0001:000867B4      _isxdigit
 0001:00087A94      _itoa
 0003:000104F0      _last_gobject
 0001:0008AE08      _localtime
 0001:00087994      _log
 0001:000826D4      _malloc
 0001:00086ABC      _mblen
 0001:00086C80      _mbstowcs
 0001:00086B38      _mbtowc
 0001:00083430      _memchr
 0001:000836E8      _memcmp
 0001:00083450      _memcpy
 0001:00083474      _memmove
 0001:000834C0      _memset
 0001:00087B54      _modf
 0001:0003A224      _pcre_compile
 0001:00037FE4      _pcre_copy_substring
 0001:0003C880      _pcre_exec
 0002:00004DA8      _pcre_free
 0001:00038174      _pcre_free_substring
 0001:000380FC      _pcre_free_substring_list
 0001:00038774      _pcre_fullinfo
 0001:0003810C      _pcre_get_substring
 0001:0003803C      _pcre_get_substring_list
 0001:00038710      _pcre_info
 0001:00037D50      _pcre_maketables
 0002:00004DA4      _pcre_malloc
 0001:00038624      _pcre_study
 0001:00038708      _pcre_version
 0001:00087B84      _pow
 0001:00085880      _printf
 0001:00089D20      _qsort
 0001:0008A8C8      _raise
 0001:00087DE0      _rand
 0001:000826F4      _realloc
 0001:0003CDC8      _regcomp
 0001:0003CD08      _regerror
 0001:0003CE30      _regexec
 0001:0003CDB4      _regfree
 0003:000016A4      _s_PrintFileName
 0003:000017A4      _s_PrinterName
 0003:000018A4      _s_isDefaultPrinterDevice
 0001:0003DE14      _savescreen_coords
 0001:000858A4      _setmode
 0001:00085910      _setvbuf
 0001:0008A868      _signal
 0001:00085990      _snprintf
 0001:00085A88      _sprintf
 0001:00088E68      _sqrt
 0001:00087DB8      _srand
 0001:00083564      _strcat
 0001:000835A0      _strchr
 0001:00083754      _strdup
 0001:000835F4      _strlen
 0001:00083650      _strncat
 0001:000836C0      _strncmp
 0001:00083788      _strncpy
 0001:000837D8      _strpbrk
 0001:00083804      _strrchr
 0001:00083830      _strstr
 0001:00083884      _strtok
 0001:0008B364      _time
 0001:00069794      _tolower
 0001:000697A4      _toupper
 0001:000697B4      _towlower
 0001:000697C4      _towupper
 0001:0008B2A4      _tzset
 0001:00087AC4      _ultoa
 0001:00085C0C      _vfprintf
 0001:000859C0      _vsnprintf
 0001:00085AB0      _vsprintf
 0001:0008393C      _wcscpy
 0001:00083924      _wcslen
 0001:00086DE8      _wcstombs
 0001:00086C0C      _wctomb
 0001:0005EE2C      _yy_bytes_buffer
 0001:0005EDF0      _yy_create_buffer
 0001:0005EE18      _yy_delete_buffer
 0001:0005EE04      _yy_switch_to_buffer
 0003:00009E38      _yyin
 0003:00009E2C      _yyleng
 0002:0001CB78      _yytext
 0001:0006C968      hb_wvw_gtDlgProcMLess
 0001:0006CB88      hb_wvw_gtDlgProcModal
 0001:00033C64      s_ConsoleHandlerRoutine

  Address         Publics by Value

 0001:00000000      @C1_0
 0001:00000000      __acrtused
 0001:00000059      __GetExceptDLLinfo
 0001:0000005E      __isDLL
 0001:00000066      __getHInstance
 0001:00000140      ___System__GetTls
 0001:00000140      @Sysinit@@GetTls$qqrv
 0001:00000150      @C2_0
 0001:00000150      @C2_2
 0001:0000016B      _HB_FUN_MAIN
 0001:00000184      _HB_FUN_CONFIGCORES
 0001:000001A0      _HB_FUN_HB_LANG_EN
 0001:000001A0      @C43_0
 0001:000001A4      @C43_2
 0001:000001B0      _hb_arrayNew
 0001:000001B0      @C125_0
 0001:0000023C      _hb_arrayAdd
 0001:0000028C      _hb_arrayAddForward
 0001:000002DC      _hb_arrayLen
 0001:000002F4      _hb_arrayIsObject
 0001:00000314      _hb_arraySize
 0001:00000414      _hb_arrayDel
 0001:000004A4      _hb_arrayIns
 0001:00000530      _hb_arraySet
 0001:00000594      _hb_arraySetForward
 0001:000005F8      _hb_arrayGet
 0001:00000670      _hb_arrayGetByRef
 0001:000007A4      _hb_arrayGetDS
 0001:000007F0      _hb_arrayGetDL
 0001:00000830      _hb_arrayGetItemPtr
 0001:00000864      _hb_arrayGetL
 0001:000008A0      _hb_arrayGetNI
 0001:000008DC      _hb_arrayGetNL
 0001:00000918      _hb_arrayGetNLL
 0001:00000954      _hb_arrayGetNInt
 0001:00000990      _hb_arrayGetND
 0001:000009D8      _hb_arrayCopyC
 0001:00000A30      _hb_arrayGetC
 0001:00000A80      _hb_arrayGetCPtr
 0001:00000AC4      _hb_arrayGetCLen
 0001:00000B08      _hb_arrayGetPtr
 0001:00000B44      _hb_arrayGetType
 0001:00000B80      _hb_arrayLast
 0001:00000BEC      _hb_arrayFill
 0001:00000C64      _hb_arrayScan
 0001:000010F8      _hb_arrayEval
 0001:000012AC      _hb_arrayReleaseBase
 0001:00001360      _hb_arrayRelease
 0001:00001390      _hb_arrayCopy
 0001:0000147C      _hb_arrayClone
 0001:00001620      _hb_arrayFromStack
 0001:00001678      _hb_arrayFromParams
 0001:000016E4      _hb_arrayReleaseGarbage
 0001:00001760      _hb_arrayMode
 0001:00001764      @C127_0
 0001:000017E0      _HB_FUN_ARRAY
 0001:0000188C      _HB_FUN_AADD
 0001:00001A30      _HB_FUN_HB_ARRAYID
 0001:00001A68      _HB_FUN_ASIZE
 0001:00001BA0      _HB_FUN_ATAIL
 0001:00001BC4      _HB_FUN_AINS
 0001:00001CC8      _HB_FUN_ADEL
 0001:00001DA8      _HB_FUN_AFILL
 0001:00002024      _HB_FUN_ASCAN
 0001:000020E4      _HB_FUN_AEVAL
 0001:00002240      _HB_FUN_ACOPY
 0001:00002360      _HB_FUN_ACLONE
 0001:0000239C      _HB_FUN_HB_APARAMS
 0001:000023CC      _HB_FUN_HB_AEXPRESSIONS
 0001:000025D4      _HB_FUN_HB_ATOKENS
 0001:00002730      _SizeOfCStructure
 0001:00002A30      _HB_FUN_HB_SIZEOFCSTRUCTURE
 0001:00002AAC      _ArrayToStructure
 0001:00003E64      _HB_FUN_HB_ARRAYTOSTRUCTURE
 0001:00003F04      _StructureToArray
 0001:00004774      _HB_FUN_HB_STRUCTURETOARRAY
 0001:00004850      _HB_FUN_RASCAN
 0001:00004C54      @C129_0
 0001:000050D4      _hb_arraySort
 0001:0000515C      _HB_FUN_ASORT
 0001:000051F4      _HB_FUN_BREAK
 0001:000051F4      @C131_0
 0001:0000520C      _MsgToNum
 0001:0000520C      @C133_0
 0001:000053E8      _hb_clsReleaseAll
 0001:00005470      _hb_clsIsClassRef
 0001:00005B18      _hb_clsIsParent
 0001:00005BEC      _hb_objGetClass
 0001:00005C0C      _hb_objGetClsName
 0001:00005CB8      _hb_objGetRealCls
 0001:00005F14      _hb_objGetRealClsName
 0001:00005FE0      _hb_objGetMethod
 0001:00005FFC      _hb_objGetMthd
 0001:000062D4      _hb_clsHasMsg
 0001:000063E0      _hb_objGetpMethod
 0001:00006574      _hb_objHasMsg
 0001:000065A4      _hb_clsAddMsg
 0001:00006F64      _HB_FUN___CLSADDMSG
 0001:000070F0      _HB_FUN___CLSNEW
 0001:00007A80      _HB_FUN___CLSDELMSG
 0001:00007C04      _HB_FUN___CLSINST
 0001:00007ED4      _HB_FUN___CLSMODMSG
 0001:000080F8      _HB_FUN___CLSMSGASSIGNED
 0001:00008210      _HB_FUN___OBJGETCLSNAME
 0001:00008298      _HB_FUN___OBJHASMSG
 0001:0000831C      _HB_FUN___OBJCLONE
 0001:00008368      _hb_objSendMsg
 0001:000083E0      _hb_objSendSymbol
 0001:00008430      _HB_FUN___OBJSENDMSG
 0001:00008538      _HB_FUN___OBJSENDMSGCASE
 0001:00008640      _HB_FUN___CLSINSTSUPER
 0001:0000876C      _HB_FUN___CLS_CNTCLSDATA
 0001:000087B8      _HB_FUN___CLS_CNTDATA
 0001:000087F0      _HB_FUN___CLS_DECDATA
 0001:00008828      _HB_FUN___CLS_INCDATA
 0001:00008868      _HB_FUN___CLASSNAME
 0001:00008870      _HB_FUN___CLASSSEL
 0001:00008928      _HB_FUN___GETMESSAGE
 0001:00008954      _HB_FUN___CLSPARENT
 0001:0000898C      _HB_FUN___SENDER
 0001:000089F0      _HB_FUN___CLASSH
 0001:00008AE8      _HB_FUN___EVAL
 0001:00009758      _hb___msgGetClsData
 0001:0000987C      _hb___msgSetClsData
 0001:000099CC      _hb___msgGetShrData
 0001:00009A10      _hb___msgSetShrData
 0001:00009A84      _hb___msgGetData
 0001:00009AE4      _hb___msgSetData
 0001:00009B50      _hb_clsClassesArray
 0001:00009B58      _hb_clsMaxClasses
 0001:00009B60      _HB_FUN___CLS_PARAM
 0001:00009C1C      _HB_FUN___CLS_PAR00
 0001:00009C9C      _HB_FUN___GETMSGPRF
 0001:00009DA4      _hb_mthAddTime
 0001:00009DB8      _hb_clsFinalize
 0001:00009EC4      _HB_FUN___CLSGETPROPERTIES
 0001:00009F84      _HB_FUN___CLSGETPROPERTIESANDVALUES
 0001:0000A1C4      _HB_FUN___CLSGETIVARNAMESANDVALUES
 0001:0000A43C      _hb_clsSymbolFromFunction
 0001:0000A578      _HB_FUN_HB_OBJMSGPTR
 0001:0000A5F0      _hb_clsGetHandleFromName
 0001:0000A648      _HB_FUN___CLSGETHANDLEFROMNAME
 0001:0000A7EC      _hb_clsSetModule
 0001:0000A83C      _HB_FUN___SETCLASSSCOPE
 0001:0000A880      _HB_FUN___SETCLASSAUTOINIT
 0001:0000A8C4      _HB_FUN___CLSASSOCTYPE
 0001:0000AA88      @C135_0
 0001:0000AA88      _hb_SetWinMainParameters
 0001:0000AAA8      _hb_cmdargInit
 0001:0000AAC0      _hb_cmdargARGC
 0001:0000AAC8      _hb_cmdargARGV
 0001:0000AAD0      _hb_cmdargIsInternal
 0001:0000ACC4      _hb_cmdargCheck
 0001:0000ACE0      _hb_cmdargString
 0001:0000ACF4      _hb_cmdargNum
 0001:0000AD2C      _HB_FUN_HB_ARGCHECK
 0001:0000AD70      _HB_FUN_HB_ARGSTRING
 0001:0000ADC4      _HB_FUN_HB_ARGC
 0001:0000ADDC      _HB_FUN_HB_ARGV
 0001:0000AE34      _hb_cmdargProcessVM
 0001:0000AFC0      _HB_FUN_HB_CMDARGARGV
 0001:0000AFD8      @C135_3
 0001:0000AFF0      @C137_0
 0001:0000AFF0      _hb_codeblockNew
 0001:0000B150      _hb_codeblockMacroNew
 0001:0000B1B8      _hb_codeblockDelete
 0001:0000B254      _hb_codeblockDeleteGarbage
 0001:0000B2D8      _hb_codeblockGetVar
 0001:0000B2F8      _hb_codeblockGetRef
 0001:0000B314      @C145_0
 0001:0000B314      _hb_dynsymLog
 0001:0000B348      _hb_symbolNew
 0001:0000B3A8      _hb_dynsymNew
 0001:0000B53C      _hb_dynsymGet
 0001:0000B5F8      _hb_dynsymGetCase
 0001:0000B65C      _hb_dynsymFindName
 0001:0000B6C0      _hb_dynsymFind
 0001:0000B7A8      _hb_dynsymEval
 0001:0000B7E4      _hb_dynsymRelease
 0001:0000B848      _hb_dynsymFindFromFunction
 0001:0000B878      _hb_dynsymPos
 0001:0000B89C      _hb_dynsymItems
 0001:0000B8A4      _hb_dynsymCount
 0001:0000B8AC      _HB_FUN___DYNSCOUNT
 0001:0000B8C4      _HB_FUN___DYNSGETNAME
 0001:0000B910      _HB_FUN___DYNSGETINDEX
 0001:0000B94C      _HB_FUN___DYNSISFUN
 0001:0000B99C      _HB_FUN___DYNSGETPRF
 0001:0000BA24      _hb_errForceLink
 0001:0000BA24      @C147_0
 0001:0000BA2C      _HB_FUN___ERRINHANDLER
 0001:0000BA40      _HB_FUN_ERRORBLOCK
 0001:0000BA7C      _hb_errorBlock
 0001:0000BAAC      _hb_errorHandler
 0001:0000BACC      _HB_FUN_DOSERROR
 0001:0000BB00      _hb_errInit
 0001:0000BB58      _hb_errExit
 0001:0000BB6C      _hb_errNew
 0001:0000BC04      _hb_errLaunch
 0001:0000BE08      _hb_errLaunchSubst
 0001:0000BF64      _hb_errGetDescription
 0001:0000BF98      _hb_errPutDescription
 0001:0000BFE4      _hb_errGetFileName
 0001:0000C018      _hb_errPutFileName
 0001:0000C074      _hb_errGetGenCode
 0001:0000C0AC      _hb_errPutGenCode
 0001:0000C0E8      _hb_errGetOperation
 0001:0000C11C      _hb_errPutOperation
 0001:0000C164      _hb_errGetOsCode
 0001:0000C19C      _hb_errPutOsCode
 0001:0000C1D8      _hb_errGetSeverity
 0001:0000C210      _hb_errPutSeverity
 0001:0000C24C      _hb_errGetSubCode
 0001:0000C284      _hb_errPutSubCode
 0001:0000C2C0      _hb_errGetSubSystem
 0001:0000C2F4      _hb_errPutSubSystem
 0001:0000C33C      _hb_errGetProcName
 0001:0000C370      _hb_errPutProcName
 0001:0000C3B8      _hb_errGetProcLine
 0001:0000C3F0      _hb_errPutProcLine
 0001:0000C42C      _hb_errPutModuleName
 0001:0000C474      _hb_errGetTries
 0001:0000C4AC      _hb_errPutTries
 0001:0000C4E8      _hb_errGetFlags
 0001:0000C5A0      _hb_errPutFlags
 0001:0000C664      _hb_errPutArgs
 0001:0000C6E4      _hb_errRT_New
 0001:0000C7C8      _hb_errRT_New_Subst
 0001:0000C918      _HB_FUN___ERRRT_BASE
 0001:0000C964      _HB_FUN___ERRRT_SBASE
 0001:0000C9B0      _HB_FUN_THROW
 0001:0000CA28      _hb_errRT_BASE
 0001:0000CB40      _hb_errRT_BASE_Ext1
 0001:0000CBF8      _hb_errRT_BASE_Subst
 0001:0000CCA8      _hb_errRT_SubstParams
 0001:0000CD30      _hb_errRT_BASE_SubstR
 0001:0000CE68      _hb_errRT_TERM
 0001:0000CEB0      _hb_errRT_DBCMD_Ext
 0001:0000CEF4      _hb_errRT_DBCMD
 0001:0000CF40      _hb_errRT_TOOLS
 0001:0000CF80      _hb_errInternal
 0001:0000D0CC      _hb_errRelease
 0001:0000D0DC      _hb_GetStack
 0001:0000D0DC      @C149_0
 0001:0000D0E4      _hb_stackPop
 0001:0000D130      _hb_stackDec
 0001:0000D158      _hb_stackPush
 0001:0000D1E0      _hb_stackIncrease
 0001:0000D250      _hb_stackInit
 0001:0000D2A0      _hb_stackFree
 0001:0000D2E4      _hb_stackRemove
 0001:0000D308      _hb_stackNewFrame
 0001:0000D390      _hb_stackOldFrame
 0001:0000D440      _hb_stackTopOffset
 0001:0000D458      _hb_stackBaseOffset
 0001:0000D470      _hb_stackItem
 0001:0000D49C      _hb_stackItemFromTop
 0001:0000D4C8      _hb_stackItemFromBase
 0001:0000D510      _hb_stackTopItem
 0001:0000D518      _hb_stackBaseItem
 0001:0000D520      _hb_stackSelfItem
 0001:0000D52C      _hb_stackReturnItem
 0001:0000D534      _hb_stackDispLocal
 0001:0000D7C0      _hb_stackDispCall
 0001:0000D924      @C151_0
 0001:0000D924      _hb_evalNew
 0001:0000D954      _hb_evalPutParam
 0001:0000D984      _hb_evalLaunch
 0001:0000DA60      _hb_evalRelease
 0001:0000DAA0      _hb_itemDo
 0001:0000DBFC      _hb_itemDoC
 0001:0000DC7C      _hb_itemDoCRef
 0001:0000DD68      _hb_evalBlock0
 0001:0000DD8C      _hb_evalBlock1
 0001:0000DDB8      _hb_evalBlock
 0001:0000DDF8      _HB_FUN_HB_EXECFROMARRAY
 0001:0000E1E0      _hb_execFromArray
 0001:0000E380      _HB_FUN_HB_EXEC
 0001:0000E4F8      @C155_0
 0001:0000E4F8      _hb_param
 0001:0000E5BC      _hb_paramError
 0001:0000E5E4      _hb_extIsArray
 0001:0000E67C      _hb_parc
 0001:0000E738      _hb_parcx
 0001:0000E7F4      _hb_parclen
 0001:0000E8B0      _hb_parcsiz
 0001:0000E96C      _hb_pards
 0001:0000EA48      _hb_pardsbuff
 0001:0000EB18      _hb_pardl
 0001:0000EBD8      _hb_parl
 0001:0000ED24      _hb_parnd
 0001:0000EE2C      _hb_parni
 0001:0000EF2C      _hb_parnl
 0001:0000F038      _hb_parnint
 0001:0000F14C      _hb_parptr
 0001:0000F208      _hb_parpointer
 0001:0000F298      _hb_parinfa
 0001:0000F2D8      _hb_parinfo
 0001:0000F3DC      _hb_pcount
 0001:0000F40C      _hb_ret
 0001:0000F430      _hb_reta
 0001:0000F448      _hb_retc
 0001:0000F460      _hb_retclen
 0001:0000F47C      _hb_retds
 0001:0000F494      _hb_retd
 0001:0000F4B4      _hb_retdl
 0001:0000F4CC      _hb_retl
 0001:0000F4F0      _hb_retnd
 0001:0000F508      _hb_retni
 0001:0000F520      _hb_retnl
 0001:0000F538      _hb_retnlen
 0001:0000F558      _hb_retndlen
 0001:0000F578      _hb_retnilen
 0001:0000F594      _hb_retnllen
 0001:0000F5B0      _hb_retptr
 0001:0000F5C8      _hb_retptrGC
 0001:0000F5E0      _hb_retnint
 0001:0000F5F8      _hb_retnintlen
 0001:0000F614      _hb_storc
 0001:0000F6D4      _hb_storclen
 0001:0000F79C      _hb_storclenAdopt
 0001:0000F864      _hb_stords
 0001:0000F924      _hb_stordl
 0001:0000F9E4      _hb_storl
 0001:0000FABC      _hb_storni
 0001:0000FB7C      _hb_stornl
 0001:0000FC3C      _hb_stornint
 0001:0000FD0C      _hb_stornd
 0001:0000FDD0      _hb_storptr
 0001:0000FE90      _hb_stornll
 0001:0000FF54      _hb_parnll
 0001:00010034      _hb_retnll
 0001:0001004C      _hb_retnlllen
 0001:00010068      @C157_0
 0001:00010068      _hb_xalloc
 0001:000101C4      _hb_xgrab
 0001:0001032C      _hb_xrealloc
 0001:00010444      _hb_xfree
 0001:00010510      _hb_xsize
 0001:0001051C      _hb_xinit
 0001:00010520      _hb_mem2str
 0001:000105F8      _hb_xexit
 0001:0001091C      _hb_xquery
 0001:00010B54      _HB_FUN_MEMORY
 0001:00010B74      _HB_FUN_HB_FM_STAT
 0001:00010B78      @C159_0
 0001:00010BD4      _hb_gcAlloc
 0001:00010C24      _hb_gcFree
 0001:00010CA0      _hb_gcGripGet
 0001:00010D14      _hb_gcGripDrop
 0001:00010D60      _hb_gcLock
 0001:00010DA8      _hb_gcUnlock
 0001:00010DFC      _hb_gcItemRef
 0001:00010F88      _hb_gcCollect
 0001:00010F94      _hb_gcCollectAll
 0001:00011128      _hb_gcReleaseAll
 0001:000111E4      _hb_gcInit
 0001:00011214      _hb_gcSetCollecting
 0001:00011228      _HB_FUN_HB_GCSTEP
 0001:00011230      _HB_FUN_HB_GCALL
 0001:00011250      @C161_0
 0001:00011510      _hb_hashNew
 0001:000115C0      _hb_hashAdd
 0001:00011A84      _hb_hashAddForward
 0001:00011C3C      _hb_hashScan
 0001:00011CD8      _hb_hashRemove
 0001:00011E84      _hb_hashLen
 0001:00011E9C      _hb_hashSet
 0001:00011F44      _hb_hashSetForward
 0001:00011FF4      _hb_hashGet
 0001:000120BC      _hb_hashPreallocate
 0001:00012140      _hb_hashClone
 0001:00012230      _hb_hashMerge
 0001:00012634      _hb_hashReleaseBase
 0001:000126DC      _hb_hashRelease
 0001:0001274C      _hb_hashReleaseGarbage
 0001:000127CC      _hb_hashGetKeys
 0001:000128B0      _hb_hashGetValues
 0001:00012994      _hb_hashGetKeyAt
 0001:00012A00      _hb_hashGetValueAt
 0001:00012A6C      _HB_FUN_HASH
 0001:00012B9C      _HB_FUN_HGETPOS
 0001:00012C28      _HB_FUN_HHASKEY
 0001:00012CB0      _HB_FUN_HGET
 0001:00012D70      _HB_FUN_HSET
 0001:00012DF4      _HB_FUN_HDEL
 0001:00012E98      _HB_FUN_HGETKEYAT
 0001:00012F4C      _HB_FUN_HGETVALUEAT
 0001:00013000      _HB_FUN_HSETVALUEAT
 0001:000130D8      _HB_FUN_HGETPAIRAT
 0001:0001326C      _HB_FUN_HDELAT
 0001:00013314      _HB_FUN_HGETKEYS
 0001:00013370      _HB_FUN_HGETVALUES
 0001:000133CC      _HB_FUN_HFILL
 0001:0001347C      _HB_FUN_HSCAN
 0001:00013570      _HB_FUN_HEVAL
 0001:0001368C      _HB_FUN_HCLONE
 0001:000136E4      _HB_FUN_HCOPY
 0001:000137DC      _HB_FUN_HMERGE
 0001:000138B0      _HB_FUN_HSETCASEMATCH
 0001:00013928      _HB_FUN_HGETCASEMATCH
 0001:00013984      _HB_FUN_HSETAUTOADD
 0001:000139F0      _HB_FUN_HGETAUTOADD
 0001:00013A44      _HB_FUN_HSETPARTITION
 0001:00013B7C      _HB_FUN_HGETPARTITION
 0001:00013C44      _HB_FUN_HALLOCATE
 0001:00013CAC      _hb_i18n_scan_table
 0001:00013CAC      @C163_0
 0001:00013DB0      _hb_i18n_build_table_filename
 0001:00013E54      _hb_i18n_read_table_header
 0001:00013F94      _hb_i18n_write_table_header
 0001:00014068      _hb_i18n_read_table
 0001:000141E8      _hb_i18n_write_table
 0001:000142D4      _hb_i18n_load_language
 0001:000143FC      _HB_FUN_HB_I18NLOADTABLE
 0001:00014528      _HB_FUN_HB_I18NSORTTABLE
 0001:00014678      _HB_FUN_HB_I18NSAVETABLE
 0001:000147A0      _HB_FUN_I18N
 0001:00014820      _HB_FUN_HB_I18NSETPATH
 0001:00014878      _HB_FUN_HB_I18NGETPATH
 0001:0001488C      _HB_FUN_HB_I18NSETLANGUAGE
 0001:00014968      _HB_FUN_HB_I18NGETLANGUAGE
 0001:0001497C      _HB_FUN_HB_I18NGETLANGUAGENAME
 0001:00014990      _HB_FUN_HB_I18NGETBASELANGUAGE
 0001:000149A4      _HB_FUN_HB_I18NGETBASELANGUAGENAME
 0001:000149B8      _HB_FUN_HB_I18NSETBASELANGUAGE
 0001:00014A78      _HB_FUN_HB_I18NINITIALIZED
 0001:00014A9C      _hb_i18nInit
 0001:00014B74      _hb_i18nExit
 0001:00014B94      _HB_FUN_HB_HFIND
 0001:00014C78      @C165_0
 0001:00014E08      _hb_vmInit
 0001:0001503C      _hb_vmReleaseLocalSymbols
 0001:00015070      _hb_vmQuit
 0001:00015228      _hb_vmExecute
 0001:0001F2B4      _hb_vmOperatorCall
 0001:0001F3D0      _hb_vmOperatorCallUnary
 0001:0001F5FC      _hb_vmDo
 0001:0001F910      _hb_vmSend
 0001:0002013C      _hb_vmEvalBlock
 0001:00020164      _hb_vmEvalBlockV
 0001:000201B4      _hb_vmEvalBlockOrMacro
 0001:00020258      _hb_vmFunction
 0001:0002071C      _hb_vmPush
 0001:00020770      _hb_vmPushNil
 0001:000207B0      _hb_vmPushLogical
 0001:000207F8      _hb_vmPushNumber
 0001:00020814      _hb_vmPushNumType
 0001:00020968      _hb_vmPushInteger
 0001:00020A28      _hb_vmPushLong
 0001:00020BD0      _hb_vmPushDouble
 0001:00020D38      _hb_vmPushDate
 0001:00020D80      _hb_vmPushPointer
 0001:00020DCC      _hb_vmPushString
 0001:00020E5C      _hb_vmPushSymbol
 0001:00021FCC      _hb_vmProcessSymbols
 0001:0002220C      _hb_vmSymbols
 0001:00022214      _hb_vmLastModule
 0001:0002222C      _hb_vmExplicitStartup
 0001:00022298      _hb_vmDoExitFunctions
 0001:000223C0      _hb_vmFindModule
 0001:000223DC      _hb_vmFindModuleByName
 0001:0002241C      _hb_vmForceLink
 0001:00022424      _HB_FUN_ERRORLEVEL
 0001:00022478      _hb_vmRequestQuit
 0001:00022484      _hb_vmRequestEndProc
 0001:00022490      _hb_vmRequestBreak
 0001:000224D8      _hb_vmRequestQuery
 0001:000224E0      _hb_vmRequestCancel
 0001:000225B4      _hb_vmRequestReset
 0001:000225C0      _hb_vmRequestDebug
 0001:000225CC      _HB_FUN_HB_DBG_INVOKEDEBUG
 0001:0002263C      _HB_FUN_HB_DBG_VMVARSLIST
 0001:00022668      _HB_FUN_HB_DBG_VMVARSLEN
 0001:00022680      _HB_FUN_HB_DBG_VMVARSGET
 0001:000226C0      _HB_FUN_HB_DBG_VMVARSSET
 0001:00022708      _HB_FUN_HB_DBG_PROCLEVEL
 0001:00022720      _hb_vmIsLocalRef
 0001:000227C4      _hb_vmIsStaticRef
 0001:000227D0      _hb_vmRegisterGlobals
 0001:00022848      _hb_vmIsGlobalRef
 0001:00022854      _HB_FUN___VMVARGLIST
 0001:00022880      _HB_FUN___SETPROFILER
 0001:000228B4      _HB_FUN___TRACEPRGCALLS
 0001:000228E8      _hb_vmProcessDllSymbols
 0001:000229CC      _hb_vmPushBaseArray
 0001:00022A18      _HB_FUN_HB_FUNCPTR
 0001:00022AC0      _HB_FUN_HB_QSELF
 0001:00022B44      _HB_FUN___OPCOUNT
 0001:00022B58      _HB_FUN___OPGETPRF
 0001:00022BC0      _HB_FUN_HB_SAVEBLOCK
 0001:00022C5C      _HB_FUN_HB_RESTOREBLOCK
 0001:00022E18      _HB_FUN_HB_NOMOUSE
 0001:00022E1C      _HB_FUN_HB_NOSTARTUPWINDOW
 0001:00022E20      _HB_FUN_HB_WITHOBJECTCOUNTER
 0001:00022E34      _HB_FUN___VMVARSLIST
 0001:00022E3C      _HB_FUN___VMVARSLEN
 0001:00022E44      _HB_FUN___VMVARSGET
 0001:00022E4C      _HB_FUN___VMVARSSET
 0001:00022E54      _HB_FUN_HB_MULTITHREAD
 0001:00022E64      _HB_FUN_HB_VMMODE
 0001:00022E74      _HB_FUN___QUIT
 0001:00022E74      @C169_0
 0001:00022E7C      _hb_vmSymbolInit_RT
 0001:00022E7C      @C171_0
 0001:00022E94      _hb_itemNew
 0001:00022E94      @C173_0
 0001:00022EA4      _hb_itemParam
 0001:00022ED8      _hb_itemParamPtr
 0001:00022EF0      _hb_itemPCount
 0001:00022F20      _hb_itemRelease
 0001:00022F3C      _hb_itemArrayNew
 0001:00022F5C      _hb_itemArrayGet
 0001:00022F80      _hb_itemArrayPut
 0001:00022FA0      _hb_itemSetCMemo
 0001:00022FB8      _hb_itemGetC
 0001:00022FFC      _hb_itemGetCPtr
 0001:00023018      _hb_itemGetCLen
 0001:00023034      _hb_itemCopyC
 0001:00023070      _hb_itemFreeC
 0001:0002308C      _hb_itemGetDS
 0001:000230BC      _hb_itemGetDL
 0001:000230D8      _hb_itemGetL
 0001:00023158      _hb_itemGetND
 0001:000231D4      _hb_itemGetNI
 0001:00023244      _hb_itemGetNL
 0001:000232B4      _hb_itemGetPtr
 0001:000232CC      _hb_itemPutDS
 0001:00023308      _hb_itemPutD
 0001:00023350      _hb_itemPutDL
 0001:00023388      _hb_itemPutL
 0001:000233C0      _hb_itemPutND
 0001:0002343C      _hb_itemPutNI
 0001:0002348C      _hb_itemPutNL
 0001:000234DC      _hb_itemPutNLen
 0001:000235E0      _hb_itemPutNDLen
 0001:00023690      _hb_itemPutNILen
 0001:000236F0      _hb_itemPutNLLen
 0001:00023750      _hb_itemGetNLen
 0001:000237CC      _hb_itemSize
 0001:00023808      _hb_itemType
 0001:0002381C      _hb_itemTypeStr
 0001:00023914      _hb_itemUnRef
 0001:0002392C      _hb_itemUnRefOnce
 0001:00023A0C      _hb_itemStrCmp
 0001:00023B3C      _hb_itemStrBuf
 0001:00023FDC      _hb_itemStr
 0001:000240AC      _hb_itemString
 0001:00024280      _hb_itemPadConv
 0001:0002430C      _hb_itemValToStr
 0001:00024350      _hb_itemGetNLL
 0001:000243C4      _hb_itemPutNLL
 0001:00024434      _hb_itemPutNLLLen
 0001:000244B4      _hb_itemPutNInt
 0001:00024500      _hb_itemPutNIntLen
 0001:00024554      _hb_itemGetNInt
 0001:000245C8      _hb_itemPushForward
 0001:000245C8      @C175_0
 0001:0002461C      _hb_itemForwardValue
 0001:00024664      _hb_itemReturn
 0001:00024684      _hb_itemReturnCopy
 0001:000246A4      _hb_itemReleaseString
 0001:000246F0      _hb_itemClear
 0001:000247C8      _hb_itemSwap
 0001:00024808      _hb_itemCopy
 0001:000248AC      _hb_itemPutC
 0001:0002497C      _hb_itemPutCL
 0001:00024A38      _hb_itemPutCPtr
 0001:00024A94      _hb_itemPutCRaw
 0001:00024AEC      _hb_itemPutCRawStatic
 0001:00024B30      _hb_itemPutCStatic
 0001:00024B8C      _hb_itemPutCLStatic
 0001:00024BD0      _hb_itemPutPtr
 0001:00024C0C      _hb_itemPutPtrGC
 0001:00024C48      _hb_itemPushStaticString
 0001:00024CA8      _hb_retcAdopt
 0001:00024CF8      _hb_retclenAdopt
 0001:00024D54      _hb_retclenAdoptRaw
 0001:00024DA0      _hb_retclenAdoptRawStatic
 0001:00024DEC      _hb_retcAdoptStatic
 0001:00024E30      _hb_retclenAdoptStatic
 0001:00024E70      _hb_itemParamId
 0001:00024EC8      @C177_0
 0001:00024F3C      _hb_macroDelete
 0001:00025054      _hb_macroRun
 0001:00025168      _hb_macroIsIdent
 0001:000251E4      _hb_macroTextSubst
 0001:00025408      _hb_macroGetValue
 0001:0002555C      _hb_macroSetValue
 0001:00025624      _hb_macroPopAliasedValue
 0001:00025640      _hb_macroPushAliasedValue
 0001:00025878      _hb_macroExpandString
 0001:000258A4      _hb_macroCompile
 0001:00025900      _hb_macroPushSymbol
 0001:00025A10      _hb_macroTextValue
 0001:00025A50      _hb_macroGetType
 0001:00025BD4      _hb_macroSetMacro
 0001:00025C00      _HB_FUN_HB_SETMACRO
 0001:00025DA8      _hb_compLocalVarGetPos
 0001:00025E08      _hb_compGenJump
 0001:00025E50      _hb_compGenJumpFalse
 0001:00025E98      _hb_compGenJumpThere
 0001:00025EDC      _hb_compGenJumpHere
 0001:00025EF8      _hb_compGenJumpTrue
 0001:00025FBC      _hb_compMemvarGenPCode
 0001:0002600C      _hb_compGenPushSymbol
 0001:00026080      _hb_compGenPushLong
 0001:000261A4      _hb_compGenMessage
 0001:000261E0      _hb_compGenMessageData
 0001:0002622C      _hb_compGenPopVar
 0001:00026278      _hb_compGenPopAliasedVar
 0001:00026398      _hb_compGenPushVar
 0001:000263E4      _hb_compGenPushVarRef
 0001:00026430      _hb_compGenPushMemVarRef
 0001:00026458      _hb_compGenPushAliasedVar
 0001:00026578      _hb_compGenPushLogical
 0001:000265A0      _hb_compGenPushDouble
 0001:000265DC      _hb_compGenPushFunCall
 0001:00026618      _hb_compGenPushString
 0001:0002664C      _hb_compGenPCode1
 0001:0002668C      _hb_compGenPCode2
 0001:000266D8      _hb_compGenPCode3
 0001:00026734      _hb_compGenPCode4
 0001:0002679C      _hb_compGenPCodeN
 0001:000267F0      _hb_macroError
 0001:00026804      _hb_compCodeBlockStart
 0001:00026844      _hb_compCodeBlockEnd
 0001:000268D4      WinMain
 0001:000268D4      @C183_0
 0001:000269F4      _hb_memvarsInit
 0001:000269F4      @C185_0
 0001:00026A48      _hb_memvarsRelease
 0001:00026B08      _hb_memvarValueBaseAddress
 0001:00026B10      _hb_memvarValueNew
 0001:00026BE8      _hb_memvarDetachLocal
 0001:00026C6C      _hb_memvarGetPrivatesBase
 0001:00026C80      _hb_memvarSetPrivatesBase
 0001:00026CD8      _hb_memvarValueIncRef
 0001:00026D30      _hb_memvarValueDecRef
 0001:00026D78      _hb_memvarValueDecGarbageRef
 0001:00026DC8      _hb_memvarSetValue
 0001:00026E84      _hb_memvarGet
 0001:00026EF0      _hb_memvarGetValue
 0001:00026F64      _hb_memvarGetRefer
 0001:000270D0      _hb_memvarNewParameter
 0001:000270EC      _hb_memvarGetStrValuePtr
 0001:0002715C      _hb_memvarCreateFromItem
 0001:00027498      _hb_memvarScope
 0001:00027568      _hb_memvarReleasePublic
 0001:00027698      _HB_FUN___MVPUBLIC
 0001:0002777C      _HB_FUN___MVPRIVATE
 0001:00027850      _HB_FUN___MVXRELEASE
 0001:00027914      _HB_FUN___MVRELEASE
 0001:000279AC      _HB_FUN___MVSCOPE
 0001:00027A14      _HB_FUN___MVCLEAR
 0001:00027A24      _HB_FUN___MVDBGINFO
 0001:00027B24      _HB_FUN___MVEXIST
 0001:00027B6C      _HB_FUN___MVGET
 0001:00027C3C      _HB_FUN___MVPUT
 0001:00027F74      _HB_FUN___MVSAVE
 0001:000281E8      _HB_FUN___MVRESTORE
 0001:000286B4      _hb_memvarsIsMemvarRef
 0001:000286F0      _hb_memvarGetVarHandle
 0001:0002870C      _hb_memvarGetValueByHandle
 0001:000287B4      _HB_FUN___MVSYMBOLINFO
 0001:000287E8      @C189_0
 0001:000287E8      _HB_FUN_PCOUNT
 0001:00028824      _HB_FUN_METHODNAME
 0001:00028824      @C191_0
 0001:0002885C      _HB_FUN_PROCNAME
 0001:00028894      _HB_FUN_PROCLINE
 0001:000288CC      _HB_FUN_PROCFILE
 0001:00028900      _hb_procinfo
 0001:00028D7C      @C199_2
 0001:00028D7C      @C199_0
 0001:00028D94      _HB_FUN_CLIPPER520
 0001:00028DAC      _HB_FUN_CLIPPER530
 0001:00028DC4      _HB_FUN_CLIPINIT
 0001:00028DDC      _HB_FUN___SETHELPK
 0001:00028DF4      _HB_FUN___BREAKBLOCK
 0001:00028E0C      _HB_FUN___ERRORBLOCK
 0001:00028E24      _HB_FUN___MINIMALERRORHANDLER
 0001:00028E3C      _HB_FUN_SYSINIT
 0001:00028E54      @C201_0
 0001:00028E54      _HB_FUN_ABS
 0001:00028FF8      @C207_0
 0001:00028FF8      _HB_FUN_AT
 0001:00029110      _hb_AtSkipStrings
 0001:00029240      _HB_FUN_ATSKIPSTRINGS
 0001:000292C8      @C209_0
 0001:000292C8      _hb_backgroundAddFunc
 0001:00029390      _hb_backgroundRun
 0001:0002945C      _hb_backgroundRunSingle
 0001:000294A4      _hb_backgroundReset
 0001:000294C0      _hb_backgroundShutDown
 0001:00029518      _hb_backgroundDelFunc
 0001:00029608      _hb_backgroundFind
 0001:0002963C      _hb_backgroundActive
 0001:00029660      _hb_backgroundTime
 0001:00029684      _HB_FUN_HB_BACKGROUNDRUN
 0001:000296B0      _HB_FUN_HB_BACKGROUNDRESET
 0001:000296B8      _HB_FUN_HB_BACKGROUNDADD
 0001:0002974C      _HB_FUN_HB_BACKGROUNDDEL
 0001:00029798      _HB_FUN_HB_BACKGROUNDACTIVE
 0001:00029800      _HB_FUN_HB_BACKGROUNDTIME
 0001:0002985C      @C215_0
 0001:0002985C      _HB_FUN_DISPBOX
 0001:000299DC      @C217_0
 0001:00029B48      _hb_cdpRegister
 0001:00029F1C      _hb_cdpFind
 0001:00029F40      _hb_cdpSelect
 0001:00029F58      _hb_cdpSelectID
 0001:00029F7C      _hb_cdpTranslate
 0001:0002A008      _hb_cdpnTranslate
 0001:0002A0AC      _hb_cdpGetU16
 0001:0002A0F0      _hb_cdpGetFromUTF8
 0001:0002A15C      _hb_cdpStrnToUTF
 0001:0002A238      _hb_cdpStrnToU16
 0001:0002A2FC      _hb_cdpchrcmp
 0001:0002A374      _hb_cdpcmp
 0001:0002A5D0      _hb_cdpReleaseAll
 0001:0002A65C      _HB_FUN_HB_SETCODEPAGE
 0001:0002A694      _HB_FUN_HB_TRANSLATE
 0001:0002A748      @C217_3
 0001:0002A754      @C219_0
 0001:0002A754      _HB_FUN_CHR
 0001:0002A7AC      _HB_FUN_ASC
 0001:0002A804      @C221_0
 0001:0002A804      _HB_FUN_HB_COLORINDEX
 0001:0002A8D4      _hb_conInit
 0001:0002A8D4      @C223_0
 0001:0002A988      _hb_conRelease
 0001:0002A9F8      _hb_conNewLine
 0001:0002AA00      _HB_FUN_HB_OSNEWLINE
 0001:0002AA14      _hb_conOutStd
 0001:0002AA68      _hb_conOutErr
 0001:0002AAC0      _hb_conOutAlt
 0001:0002AC64      _HB_FUN_OUTSTD
 0001:0002ACC8      _HB_FUN_OUTERR
 0001:0002AD2C      _HB_FUN_QQOUT
 0001:0002AD90      _HB_FUN_QOUT
 0001:0002AE00      _HB_FUN___EJECT
 0001:0002AE44      _HB_FUN_PROW
 0001:0002AE5C      _HB_FUN_PCOL
 0001:0002AF90      _HB_FUN_DEVPOS
 0001:0002AFCC      _HB_FUN_SETPRC
 0001:0002B00C      _HB_FUN_DEVOUT
 0001:0002B0D0      _HB_FUN_DISPOUT
 0001:0002B1C0      _HB_FUN_DISPOUTAT
 0001:0002B2D4      _HB_FUN_HBCONSOLELOCK
 0001:0002B2D8      _HB_FUN_HBCONSOLEUNLOCK
 0001:0002B2DC      _hb_dateCMonth
 0001:0002B2DC      @C227_0
 0001:0002B304      _hb_dateCDOW
 0001:0002B32C      _HB_FUN_CMONTH
 0001:0002B39C      _HB_FUN_CDOW
 0001:0002B438      _hb_dateEncode
 0001:0002B438      @C229_0
 0001:0002B548      _hb_dateDecode
 0001:0002B638      _hb_dateStrPut
 0001:0002B738      _hb_dateStrGet
 0001:0002B7E4      _hb_dateDecStr
 0001:0002B828      _hb_dateEncStr
 0001:0002B860      _hb_dateFormat
 0001:0002BB58      _hb_dateDOW
 0001:0002BBC0      _hb_dateToday
 0001:0002BBF0      _hb_dateTimeStr
 0001:0002BC24      _HB_FUN_CTOD
 0001:0002BC24      @C231_0
 0001:0002BEF4      _HB_FUN_DTOC
 0001:0002BF60      _HB_FUN_DTOS
 0001:0002BFB8      _HB_FUN_STOD
 0001:0002BFE0      _HB_FUN_HB_STOD
 0001:0002BFE8      _HB_FUN_YEAR
 0001:0002C054      _HB_FUN_MONTH
 0001:0002C0C0      _HB_FUN_DAY
 0001:0002C12C      _HB_FUN_TIME
 0001:0002C150      _HB_FUN_TIMEOFDAY
 0001:0002C1FC      _HB_FUN_DATE
 0001:0002C238      _HB_FUN_DOW
 0001:0002C2CC      @C245_0
 0001:0002C2CC      _HB_FUN_EMPTY
 0001:0002C4E4      _hb_fsFile
 0001:0002C4E4      @C247_0
 0001:0002C59C      _hb_fsIsDirectory
 0001:0002C61C      @C249_0
 0001:0002C61C      _HB_FUN_FILE
 0001:0002C66C      _HB_FUN_ISDIRECTORY
 0001:0002C6B8      @C253_0
 0001:0002C6B8      _DostoWinHandle
 0001:0002C7B0      _hb_fsPOpen
 0001:0002C7C8      _hb_fsOpenProcess
 0001:0002CB9C      _hb_fsProcessValue
 0001:0002CC08      _hb_fsCloseProcess
 0001:0002CC44      _hb_fsOpen
 0001:0002CCBC      _hb_fsCreate
 0001:0002CD34      _hb_fsCreateEx
 0001:0002CDAC      _hb_fsClose
 0001:0002CDCC      _hb_fsSetDevMode
 0001:0002CE1C      _hb_fsRead
 0001:0002CE68      _hb_fsWrite
 0001:0002CED0      _hb_fsReadLarge
 0001:0002CF04      _hb_fsWriteLarge
 0001:0002CF60      _hb_fsCommit
 0001:0002CF80      _hb_fsLock
 0001:0002D0A4      _hb_fsLockLarge
 0001:0002D200      _hb_fsSeek
 0001:0002D27C      _hb_fsSeekLarge
 0001:0002D37C      _hb_fsTell
 0001:0002D3B4      _hb_fsDelete
 0001:0002D3EC      _hb_fsRename
 0001:0002D444      _hb_fsMkDir
 0001:0002D480      _hb_fsChDir
 0001:0002D4B8      _hb_fsRmDir
 0001:0002D4F0      _hb_fsCurDir
 0001:0002D514      _hb_fsCurDirBuff
 0001:0002D5A4      _hb_fsChDrv
 0001:0002D610      _hb_fsIsDrv
 0001:0002D67C      _hb_fsIsDevice
 0001:0002D6A4      _hb_fsCurDrv
 0001:0002D6C8      _hb_fsExtOpen
 0001:0002D6E0      _hb_fsEof
 0001:0002D6F8      _hb_fsCurDirEx
 0001:0002D71C      _hb_fsCurDirBuffEx
 0001:0002D7AC      _hb_fileTrim
 0001:0002D804      _hb_filecase
 0001:0002D8C8      _hb_fileNameConv
 0001:0002D9D0      _hb_fsDisableWaitLocks
 0001:0002D9F0      @C255_0
 0001:0002DA44      _hb_fsError
 0001:0002DA4C      _hb_fsOsError
 0001:0002DA54      _hb_fsSetError
 0001:0002DA6C      _hb_fsSetIOError
 0001:0002DAA8      _HB_FUN_HB_FNAMESPLIT
 0001:0002DAA8      @C259_0
 0001:0002DB28      _HB_FUN_HB_FNAMEMERGE
 0001:0002DBEC      @C261_0
 0001:0002DBEC      _hb_ParseLine
 0001:0002DF3C      _file_read
 0001:0002DFC4      _HB_FUN_FPARSE
 0001:0002E174      _HB_FUN_FPARSEEX
 0001:0002E2BC      _HB_FUN_FWORDCOUNT
 0001:0002E3B4      _HB_FUN_FLINECOUNT
 0001:0002E448      _HB_FUN_FCHARCOUNT
 0001:0002E4E8      _HB_FUN_FPARSELINE
 0001:0002E5B4      @C265_0
 0001:0002E638      _hb_fsCreateTemp
 0001:0002E684      _HB_FUN_HB_FTEMPCREATE
 0001:0002E6E8      _HB_FUN_DISPBEGIN
 0001:0002E6E8      @C269_0
 0001:0002E6F0      _HB_FUN_DISPEND
 0001:0002E6F8      _HB_FUN_DISPCOUNT
 0001:0002E710      _HB_FUN_HB_GT_VERSION
 0001:0002E730      @C271_0
 0001:0002E730      _hb_gtInit
 0001:0002E820      _hb_gtExit
 0001:0002E870      _hb_gtExtendedKeySupport
 0001:0002E878      _hb_gtReadKey
 0001:0002E888      _hb_gtAdjustPos
 0001:0002E8C8      _hb_gtBox
 0001:0002F00C      _hb_gtBoxD
 0001:0002F034      _hb_gtBoxS
 0001:0002F05C      _hb_gtColorSelect
 0001:0002F07C      _hb_gtDispBegin
 0001:0002F098      _hb_gtDispCount
 0001:0002F0A0      _hb_gtDispEnd
 0001:0002F0BC      _hb_gtPreExt
 0001:0002F10C      _hb_gtPostExt
 0001:0002F154      _hb_gtGetColorStr
 0001:0002F260      _hb_gtColorToN
 0001:0002F3B8      _hb_gtSetColorStr
 0001:0002F6F0      _hb_gtGetCursor
 0001:0002F704      _hb_gtSetCursor
 0001:0002F7AC      _hb_gtGetPos
 0001:0002F804      _hb_gtSetPos
 0001:0002F8CC      _hb_gtSetPosContext
 0001:0002F998      _hb_gtIsColor
 0001:0002F9A0      _hb_gtMaxCol
 0001:0002F9BC      _hb_gtMaxRow
 0001:0002F9CC      _hb_gtRectSize
 0001:0002F9F4      _hb_gtRepChar
 0001:0002FADC      _hb_gtRest
 0001:0002FB20      _hb_gtSave
 0001:0002FB64      _hb_gtScrDim
 0001:0002FBA0      _hb_gtGetBlink
 0001:0002FBB4      _hb_gtSetBlink
 0001:0002FBC8      _hb_gtSetMode
 0001:0002FC94      _hb_gtSetSnowFlag
 0001:0002FC9C      _hb_gtWrite
 0001:0002FEA0      _hb_gtWriteAt
 0001:000300E0      _hb_gtWriteCon
 0001:0003045C      _hb_gtScroll
 0001:000305A4      _hb_gtDrawShadow
 0001:00030640      _hb_gtTone
 0001:0003065C      _hb_gtVersion
 0001:0003066C      _hb_gtSuspend
 0001:000306A0      _hb_gtResume
 0001:000306D0      _hb_gtIndexedColor
 0001:000306E0      _hb_gtCurrentColor
 0001:000306F4      _hb_gtHandleClose
 0001:0003074C      _hb_gtHandleShutdown
 0001:00030774      _hb_gtSetCloseHandler
 0001:00030838      _hb_gtGetCloseHandler
 0001:00030840      _hb_gtSetCloseEvent
 0001:00030850      _hb_gtSetShutdownEvent
 0001:00030860      _hb_gtGetCloseEvent
 0001:00030868      _hb_gtGetShutdownEvent
 0001:00030870      _hb_gtSetResizeEvent
 0001:00030880      _hb_gtGetResizeEvent
 0001:00030888      _hb_gtHandleResize
 0001:0003089C      _hb_gtAddGobject
 0001:000308D0      _hb_gtDestroyGobject
 0001:000308F4      _hb_gtClearGobjects
 0001:00030920      _hb_gt_gcolorFromString
 0001:00030960      _hb_gtGobjectInside
 0001:00030A38      _hb_gt_hasChanged
 0001:00030A40      _hb_gtGetClipboard
 0001:00030A58      _hb_gtSetClipboard
 0001:00030A70      _hb_gtGetClipboardSize
 0001:00030A78      _hb_gtProcessMessages
 0001:00030A80      _hb_gtPasteFromClipboard
 0001:0003101C      _hb_ctShadow
 0001:000312C4      _hb_ctSetClearA
 0001:000312E0      _hb_ctGetClearA
 0001:000312E8      _hb_ctGetClearB
 0001:000312F0      _hb_ctSetClearB
 0001:00031324      _hb_ctSetPos
 0001:000314D0      _hb_ctWBoard
 0001:0003165C      _hb_ctWCenter
 0001:0003175C      _hb_ctWClose
 0001:000317D4      _hb_ctWNew
 0001:000318A4      _hb_ctWFree
 0001:000318FC      _hb_ctWFormat
 0001:00031A24      _hb_ctWMode
 0001:00031A74      _hb_ctWMove
 0001:00031CBC      _hb_ctWOpen
 0001:00031F14      _hb_ctWSelect
 0001:0003237C      _hb_ctMaxRow
 0001:000323AC      _hb_ctMaxCol
 0001:000323DC      _hb_ctSetCurColor
 0001:000323FC      _hb_ctWCurrent
 0001:00032430      _hb_ctWAClose
 0001:0003253C      _hb_ctWNum
 0001:00032564      _hb_ctWSetShadow
 0001:00032588      _hb_ctWStack
 0001:000325A4      _hb_ctWStep
 0001:000325F8      _hb_ctWSetMove
 0001:00032618      @C281_0
 0001:0003269C      _HB_FUN_HB_BITAND
 0001:00032720      _HB_FUN_HB_BITOR
 0001:000327A4      _HB_FUN_HB_BITXOR
 0001:00032828      _HB_FUN_HB_BITNOT
 0001:00032888      _HB_FUN_HB_BITISSET
 0001:000328F4      _HB_FUN_HB_BITSET
 0001:0003297C      _HB_FUN_HB_BITRESET
 0001:00032A08      _HB_FUN_HB_BITSHIFT
 0001:00032AC8      _GetOldesFile
 0001:00032AC8      @C291_0
 0001:00032B9C      _hb_fsAttrFromRaw
 0001:00032C34      _hb_fsAttrToRaw
 0001:00032CD8      _hb_fsAttrEncode
 0001:00032DF4      _hb_fsAttrDecode
 0001:00033050      _hb_fsFindFirst
 0001:00033254      _hb_fsFindNext
 0001:000332C4      _hb_fsFindClose
 0001:000332F8      @C293_0
 0001:000332F8      _HB_FUN_HB_NUMTOHEX
 0001:000333D0      _HB_FUN_HB_HEXTONUM
 0001:000334BC      _HB_FUN_HB_STRTOHEX
 0001:000335B0      _HB_FUN_HB_HEXTOSTR
 0001:00033700      @C299_0
 0001:00033700      _HB_FUN_HB_RANDOM
 0001:000337E0      _HB_FUN_HB_RANDOMINT
 0001:00033920      _HB_FUN_HB_RANDOMSEED
 0001:0003395C      _hb_random_num
 0001:000339C0      @C301_0
 0001:00033C64      s_ConsoleHandlerRoutine
 0001:00033D6C      _HB_FUN_HB_STARTSERVICE
 0001:00033D98      _hb_isService
 0001:00033DA0      _hb_serviceExit
 0001:00033DBC      _HB_FUN_HB_ISSERVICE
 0001:00033DE0      _HB_FUN_HB_SERVICELOOP
 0001:00033E20      _HB_FUN_HB_PUSHSIGNALHANDLER
 0001:00033EF8      _HB_FUN_HB_POPSIGNALHANDLER
 0001:00033FA0      _HB_FUN_HB_SIGNALDESC
 0001:000341BC      _HB_FUN_HB_SERVICEGENERATEFAULT
 0001:000341CC      _HB_FUN_HB_SERVICEGENERATEFPE
 0001:000341E0      @C309_0
 0001:00034220      _hb_idleState
 0001:000342D4      _hb_idleReset
 0001:000342F8      _hb_idleShutDown
 0001:00034344      _hb_idleSleep
 0001:00034380      _HB_FUN_HB_IDLESTATE
 0001:00034390      _HB_FUN_HB_IDLERESET
 0001:00034398      _HB_FUN_HB_IDLESLEEP
 0001:000343B0      _hb_idleAddFunc
 0001:00034434      _HB_FUN_HB_IDLEADD
 0001:00034480      _hb_idleDelFunc
 0001:00034560      _HB_FUN_HB_IDLEDEL
 0001:000345A8      _HB_FUN_HB_IDLESLEEPMSEC
 0001:00034600      _HB_FUN_HB_IDLEWAITNOCPU
 0001:00034654      @C311_0
 0001:00034770      _hb_inkey
 0001:00034854      _hb_inkeyLast
 0001:00034874      _hb_setInkeyLast
 0001:00034888      _hb_inkeyNext
 0001:00034914      _hb_inkeyPoll
 0001:00034984      _hb_inkeyReset
 0001:00034A0C      _HB_FUN_INKEY
 0001:00034B30      _HB_FUN_SETINKEYBEFOREBLOCK
 0001:00034C20      _HB_FUN_SETINKEYAFTERBLOCK
 0001:00034D10      _HB_FUN___KEYBOARD
 0001:00034DE0      _hb_inkeyPut
 0001:00034E24      _HB_FUN_HB_KEYPUT
 0001:00034E44      _HB_FUN_NEXTKEY
 0001:00034F18      _HB_FUN_LASTKEY
 0001:00034F58      _HB_FUN_SETLASTKEY
 0001:00034F8C      _hb_inkeyTranslate
 0001:00034F94      _hb_inkeyExit
 0001:00035024      _HB_FUN_ISALPHA
 0001:00035024      @C313_0
 0001:000350D0      _HB_FUN_ISDIGIT
 0001:00035118      _HB_FUN_ISUPPER
 0001:000351A0      _HB_FUN_ISLOWER
 0001:00035228      _HB_FUN_ISALNUM
 0001:00035270      _HB_FUN_ISCNTRL
 0001:000352B8      _HB_FUN_ISGRAPH
 0001:00035300      _HB_FUN_ISPRINT
 0001:00035348      _HB_FUN_ISPUNCT
 0001:00035390      _HB_FUN_ISSPACE
 0001:000353D8      _HB_FUN_ISXDIGIT
 0001:00035420      _HB_FUN_ISASCII
 0001:00035460      _hb_lang_ForceLink
 0001:00035460      @C317_0
 0001:000354BC      _hb_langRegister
 0001:0003550C      _hb_langDeRegister
 0001:00035534      _hb_langFind
 0001:00035558      _hb_langSelect
 0001:00035594      _hb_langSelectID
 0001:000355B8      _hb_langDGetItem
 0001:000355DC      _hb_langID
 0001:000355F4      _hb_langName
 0001:00035650      _hb_langDGetErrorDesc
 0001:00035664      _HB_FUN_HB_LANGSELECT
 0001:00035688      _HB_FUN_HB_LANGNAME
 0001:000356A8      _HB_FUN_HB_LANGERRMSG
 0001:000356C8      _HB_FUN_HB_LANGMESSAGE
 0001:000356E8      @C319_0
 0001:000356E8      _HB_FUN_LEFT
 0001:000357A8      @C321_0
 0001:000357A8      _HB_FUN_LEN
 0001:0003582C      _hb_mathResetError
 0001:0003582C      @C325_0
 0001:00035874      _hb_mathGetLastError
 0001:000358F0      _hb_mathIsMathErr
 0001:000358F8      __matherr
 0001:000359EC      _hb_mathSetErrMode
 0001:00035A00      _hb_mathGetErrMode
 0001:00035A08      _HB_FUN_MATHERRMODE
 0001:00035A54      _hb_matherr
 0001:00035C1C      _hb_mathSetHandler
 0001:00035C30      _hb_mathGetHandler
 0001:00035EAC      _HB_FUN_MATHERRORBLOCK
 0001:00035F70      _HB_FUN_EXP
 0001:00036058      _HB_FUN_LOG
 0001:00036148      _HB_FUN_SQRT
 0001:0003620C      _HB_FUN_MAXROW
 0001:0003620C      @C327_0
 0001:00036284      _HB_FUN_MAXCOL
 0001:000362FC      @C331_0
 0001:000362FC      _HB_FUN_MAX
 0001:000365C8      _HB_FUN_MIN
 0001:00036894      @C339_0
 0001:00036894      _hb_mouseIsPresent
 0001:0003689C      _hb_mouseGetCursor
 0001:000368A4      _hb_mouseSetCursor
 0001:000368CC      _hb_mouseCol
 0001:000368D4      _hb_mouseRow
 0001:000368DC      _hb_mouseSetPos
 0001:000368F4      _hb_mouseIsButtonPressed
 0001:00036904      _hb_mouseCountButton
 0001:0003690C      _hb_mouseSetBounds
 0001:0003692C      _hb_mouseGetBounds
 0001:0003694C      _HB_FUN_MPRESENT
 0001:00036970      _HB_FUN_MHIDE
 0001:0003697C      _HB_FUN_MSHOW
 0001:00036988      _HB_FUN_MSETCURSOR
 0001:000369CC      _HB_FUN_MROW
 0001:000369E0      _HB_FUN_MCOL
 0001:000369F4      _HB_FUN_MSETPOS
 0001:00036A30      _HB_FUN_MRIGHTDOWN
 0001:00036A58      _HB_FUN_MLEFTDOWN
 0001:00036A80      _HB_FUN_MDBLCLK
 0001:00036AB8      _HB_FUN_MSAVESTATE
 0001:00036B68      _HB_FUN_MRESTSTATE
 0001:00036C28      _HB_FUN_MSETBOUNDS
 0001:00036C8C      @C345_0
 0001:00036C8C      _hb_nationGetMsg
 0001:00036CB8      _HB_FUN_ISAFFIRM
 0001:00036D10      _HB_FUN_ISNEGATIVE
 0001:00036D68      _HB_FUN_NATIONMSG
 0001:00036DF0      _HB_FUN__NATSORTVER
 0001:00036E04      _HB_FUN__NATMSGVER
 0001:00036E18      _HB_FUN_PADC
 0001:00036E18      @C357_0
 0001:00036F50      _HB_FUN_PADL
 0001:00036F50      @C359_0
 0001:00037054      @C361_0
 0001:00037054      _HB_FUN_PADR
 0001:00037154      @C363_0
 0001:00037154      _HB_FUN_FOPEN
 0001:000371D0      _HB_FUN_FCREATE
 0001:00037230      _HB_FUN_HB_FCREATE
 0001:000372B0      _HB_FUN_FREAD
 0001:00037350      _HB_FUN_FWRITE
 0001:000373E0      _HB_FUN_FERROR
 0001:00037404      _HB_FUN_HB_OSERROR
 0001:0003741C      _HB_FUN_FCLOSE
 0001:00037478      _HB_FUN_FERASE
 0001:000374BC      _HB_FUN_FRENAME
 0001:00037520      _HB_FUN_FSEEK
 0001:00037598      _HB_FUN_FREADSTR
 0001:00037630      _HB_FUN_CURDIR
 0001:000376E4      _HB_FUN_HB_F_EOF
 0001:0003773C      _HB_FUN_CURDIRX
 0001:000377F0      _HB_FUN_HB_OSPATHSEPARATOR
 0001:0003780C      _HB_FUN_HB_OSPATHLISTSEPARATOR
 0001:00037828      _HB_FUN_HB_OSPATHDELIMITERS
 0001:0003783C      _HB_FUN_HB_OSDRIVESEPARATOR
 0001:00037858      _HB_FUN_HB_OPENPROCESS
 0001:00037AF4      _HB_FUN_HB_CLOSEPROCESS
 0001:00037C00      _HB_FUN_HB_PROCESSVALUE
 0001:00037CF0      _HB_FUN_HB_FCOMMIT
 0001:00037D00      _HB_FUN_DISABLEWAITLOCKS
 0001:00037D50      @C373_0
 0001:00037D50      _pcre_maketables
 0001:00037FE4      _pcre_copy_substring
 0001:0003803C      _pcre_get_substring_list
 0001:000380FC      _pcre_free_substring_list
 0001:0003810C      _pcre_get_substring
 0001:00038174      _pcre_free_substring
 0001:00038624      _pcre_study
 0001:00038708      _pcre_version
 0001:00038710      _pcre_info
 0001:00038774      _pcre_fullinfo
 0001:0003A224      _pcre_compile
 0001:0003C880      _pcre_exec
 0001:0003CD08      _regerror
 0001:0003CDB4      _regfree
 0001:0003CDC8      _regcomp
 0001:0003CE30      _regexec
 0001:0003CFF8      _HB_FUN_HB_ATX
 0001:0003D2B4      _hb_regex
 0001:0003D830      _Wild2RegEx
 0001:0003D960      _HB_FUN_WILD2REGEX
 0001:0003D9A0      _HB_FUN_HB_REGEX
 0001:0003D9B0      _HB_FUN_HB_REGEXATX
 0001:0003D9C0      _HB_FUN_HB_REGEXMATCH
 0001:0003D9FC      _HB_FUN_HB_REGEXSPLIT
 0001:0003DA0C      _HB_FUN_HB_REGEXCOMP
 0001:0003DB54      _HB_FUN_HB_ISREGEXSTRING
 0001:0003DBA0      @C375_0
 0001:0003DBA0      _HB_FUN_REPLICATE
 0001:0003DCE0      _HB_FUN_INT
 0001:0003DCE0      @C379_0
 0001:0003DD6C      _HB_FUN_ROUND
 0001:0003DE14      _savescreen_coords
 0001:0003DE14      @C385_0
 0001:0003DEA0      _HB_FUN_SAVESCREEN
 0001:0003DF4C      _HB_FUN_RESTSCREEN
 0001:0003DFC8      _HB_FUN_SCROLL
 0001:0003DFC8      @C387_0
 0001:0003E08C      _HB_FUN_SCROLLFIXED
 0001:0003E0CC      _hb_dateSeconds
 0001:0003E0CC      @C389_0
 0001:0003E138      _hb_secondsCPU
 0001:0003E180      _HB_FUN_SECONDS
 0001:0003E19C      _HB_FUN_SECONDSCPU
 0001:0003E1C0      _HB_FUN_HB_CLOCKS2SECS
 0001:0003E1F8      @C391_0
 0001:0003E22C      _hb_GetSetStructPtr
 0001:0003E770      _hb_set_SetPrinterStart
 0001:0003E7B8      _hb_set_SetPrinterStop
 0001:0003E804      _HB_FUN_SETCANCEL
 0001:0003E848      _HB_FUN___SETCENTURY
 0001:0003EA64      _HB_FUN_SET
 0001:00040880      _hb_setInitialize
 0001:00040B98      _hb_setRelease
 0001:00040CA0      _hb_setListenerAdd
 0001:00040CEC      _hb_setListenerNotify
 0001:00040D18      _hb_setListenerRemove
 0001:00040D64      _hb_setGetFirstSetPath
 0001:00040D6C      _hb_conSetColor
 0001:00040D6C      @C397_0
 0001:00040D94      _HB_FUN_SETCOLOR
 0001:00040DCC      _HB_FUN_COLORSELECT
 0001:00040DEC      _HB_FUN_SETBLINK
 0001:00040E38      _HB_FUN_HB_COLORTON
 0001:00040E7C      @C399_0
 0001:00040E7C      _hb_conSetCursor
 0001:00040EA4      _HB_FUN_SETCURSOR
 0001:00040EE0      @C401_0
 0001:00040EE0      _hb_setkeyInit
 0001:00040EE8      _hb_setkeyExit
 0001:00041058      _HB_FUN_SETKEY
 0001:00041138      _HB_FUN_HB_SETKEYARRAY
 0001:000411B0      _HB_FUN_HB_SETKEYGET
 0001:0004120C      _HB_FUN_HB_SETKEYSAVE
 0001:00041374      _HB_FUN_HB_SETKEYCHECK
 0001:000414E8      _HB_FUN_SETPOS
 0001:000414E8      @C403_0
 0001:00041524      _HB_FUN_ROW
 0001:0004154C      _HB_FUN_COL
 0001:00041574      _HB_FUN_SETPOSBS
 0001:00041574      @C405_0
 0001:000415A0      _HB_FUN_SPACE
 0001:000415A0      @C411_0
 0001:00041628      @C413_0
 0001:00041628      _hb_spFile
 0001:00041738      _hb_spOpen
 0001:00041780      _hb_spCreate
 0001:000417E4      _hb_spCreateEx
 0001:0004184C      @C415_0
 0001:0004184C      _HB_FUN_STR
 0001:00041A9C      _hb_strLower
 0001:00041A9C      @C419_0
 0001:00041B00      _hb_strLowerCopy
 0001:00041B94      _hb_strUpperCopy
 0001:00041C28      _hb_strUpper
 0001:00041C8C      _HB_FUN_LOWER
 0001:00041CE8      _HB_FUN_UPPER
 0001:00041D44      @C421_0
 0001:00041D44      _HB_FUN_STRDEL
 0001:00041E84      _hb_strEmpty
 0001:00041E84      @C423_0
 0001:00041EBC      _hb_strnicmp
 0001:00041F34      @C429_0
 0001:00041F34      _HB_FUN_STRTRAN
 0001:00042230      _HB_FUN_STUFF
 0001:00042230      @C433_0
 0001:0004238C      @C435_0
 0001:0004238C      _HB_FUN_SUBSTR
 0001:000424F0      _hb_isLegacyDevice
 0001:000424F0      @C441_0
 0001:00042544      _hb_PrinterExists
 0001:0004265C      _HB_FUN_PRINTEREXISTS
 0001:000426A0      _hb_GetDefaultPrinter
 0001:00042720      _HB_FUN_GETDEFAULTPRINTER
 0001:00042774      _hb_GetPrinterNameByPort
 0001:0004289C      _HB_FUN_PRINTERPORTTONAME
 0001:00042934      _hb_PrintFileRaw
 0001:00042A64      _HB_FUN_PRINTFILERAW
 0001:00042AE4      _HB_FUN_GETPRINTERS
 0001:00042E38      _hb_traceInit
 0001:00042E38      @C443_0
 0001:00042E80      _hb_traceExit
 0001:00042E84      _TraceLog
 0001:00042EDC      _HB_FUN_HB_TRACESTATE
 0001:00042F10      _HB_FUN_HB_TRACELEVEL
 0001:00042F44      _HB_FUN_HB_TRACESTRING
 0001:00042F78      _HB_FUN_TRANSFORM
 0001:00042F78      @C445_0
 0001:0004450C      @C447_0
 0001:000445B8      _hb_strLTrim
 0001:000445E4      _hb_strRTrimLen
 0001:00044628      _HB_FUN_LTRIM
 0001:000446A4      _HB_FUN_RTRIM
 0001:0004473C      _HB_FUN_TRIM
 0001:00044744      _HB_FUN_ALLTRIM
 0001:000447F0      _HB_FUN_TYPE
 0001:000447F0      @C451_0
 0001:00044860      @C453_0
 0001:00044860      _HB_FUN_VAL
 0001:000448FC      @C457_0
 0001:000448FC      _HB_FUN_VALTYPE
 0001:00044924      _HB_FUN_HB_ISBYREF
 0001:000449BC      _HB_FUN_HB_ISNIL
 0001:000449FC      _HB_FUN_HB_ISSTRING
 0001:00044A3C      _HB_FUN_HB_ISMEMO
 0001:00044A68      _HB_FUN_HB_ISNUMERIC
 0001:00044A94      _HB_FUN_HB_ISLOGICAL
 0001:00044AC0      _HB_FUN_HB_ISDATE
 0001:00044AE8      _HB_FUN_HB_ISARRAY
 0001:00044B2C      _HB_FUN_HB_ISOBJECT
 0001:00044B70      _HB_FUN_HB_ISBLOCK
 0001:00044B9C      _HB_FUN_HB_ISPOINTER
 0001:00044BC4      _HB_FUN_HB_ISHASH
 0001:00044BEC      _HB_FUN_HB_ISNULL
 0001:00044CA0      @C459_0
 0001:00044CA0      _HB_FUN_OS
 0001:00044CC0      _HB_FUN_HB_COMPILER
 0001:00044CE0      _HB_FUN_VERSION
 0001:00044D00      _HB_FUN_HB_PCODEVER
 0001:00044D20      _HB_FUN_HB_BUILDDATE
 0001:00044D40      _HB_FUN_HB_BUILDINFO
 0001:00045028      @C459_2
 0001:00045040      @C461_0
 0001:00045040      _HB_FUN_WORD
 0001:0004508C      _HB_FUN___XHELP
 0001:0004508C      @C463_0
 0001:0004510C      _hb_conXSaveRestRelease
 0001:0004510C      @C465_0
 0001:00045128      _HB_FUN___XSAVESCREEN
 0001:00045194      _HB_FUN___XRESTSCREEN
 0001:000451EC      @C471_2
 0001:000451EC      @C471_0
 0001:00045204      _HB_FUN_ALERT
 0001:0004521C      _HB_FUN___NONOALERT
 0001:0004527C      @C483_2
 0001:0004527C      @C483_0
 0001:00045294      _HB_FUN_GETCLRPAIR
 0001:000452AC      _HB_FUN_SETCLRPAIR
 0001:000452C4      _HB_FUN_GETPAIRPOS
 0001:000452DC      _HB_FUN_GETPAIRLEN
 0001:000452F4      _HB_FUN_GETCLRFORE
 0001:0004530C      _HB_FUN_GETCLRBACK
 0001:00045324      _HB_FUN_RADGRDEFCO
 0001:0004533C      _HB_FUN_RADITDEFCO
 0001:00045354      _HB_FUN_LISTBDEFCO
 0001:0004536C      _HB_FUN_COMBODEFCO
 0001:00045384      _HB_FUN_CHECKDEFCO
 0001:0004539C      _HB_FUN_BUTTNDEFCO
 0001:000453B4      _HB_FUN_MENUDEFCOL
 0001:000453CC      _HB_FUN_APPLYDEFAU
 0001:000453E4      @C485_2
 0001:000453E4      @C485_0
 0001:000453FC      _HB_FUN_CSTR
 0001:00045414      _HB_FUN_CSTRTOVAL
 0001:0004542C      _HB_FUN_VALTOPRG
 0001:00045444      _HB_FUN_VALTOPRGEXP
 0001:0004545C      @C505_0
 0001:0004545C      @C505_3
 0001:00045474      _HB_FUN_ERRORSYS
 0001:0004551C      PRGUnhandledExceptionFilter
 0001:00045610      _HB_FUN_SETERRORMODE
 0001:00045630      _HB_FUN_SETUNHANDLEDEXCEPTIONFILTER
 0001:00045658      @C509_0
 0001:00045658      @C509_2
 0001:00045670      _HB_FUN___GETLISTSETACTIVE
 0001:00045688      _HB_FUN___GETLISTACTIVE
 0001:000456A0      _HB_FUN___GETLISTLAST
 0001:000456D0      @C511_0
 0001:000456D0      @C511_2
 0001:000456E8      _HB_FUN_READMODAL
 0001:00045700      _HB_FUN_GETREADER
 0001:00045718      _HB_FUN_GETACTIVE
 0001:00045730      _HB_FUN_GETDOSETKEY
 0001:00045748      _HB_FUN_GETAPPLYKEY
 0001:00045760      _HB_FUN_GETPREVALIDATE
 0001:00045778      _HB_FUN_GETPOSTVALIDATE
 0001:00045790      _HB_FUN_READUPDATED
 0001:000457A8      _HB_FUN_UPDATED
 0001:000457C0      _HB_FUN_READKILL
 0001:000457D8      _HB_FUN___KILLREAD
 0001:000457F0      _HB_FUN___SETFORMAT
 0001:00045808      _HB_FUN_READFORMAT
 0001:00045820      _HB_FUN_RANGECHECK
 0001:00045838      _HB_FUN_GUIREADER
 0001:00045850      _HB_FUN_GUIAPPLYKEY
 0001:00045868      _HB_FUN_GUIGETPREVALIDATE
 0001:00045880      _HB_FUN_GUIGETPOSTVALIDATE
 0001:00045898      _HB_FUN_TBREADER
 0001:000458B0      _HB_FUN_TBAPPLYKEY
 0001:000458C8      _HB_FUN_HITTEST
 0001:000458E0      _HB_FUN_ACCELERATOR
 0001:00045910      @C527_0
 0001:00045910      @C527_2
 0001:00045928      _HB_FUN_MEMVARBLOCK
 0001:00045940      @C531_0
 0001:00045940      @C531_2
 0001:00045958      _HB_FUN_MSSGLINE
 0001:000459D0      _HB_FUN_GETMSSGLINE
 0001:00045A00      _HB_FUN_MENUMSSGLINE
 0001:00045A48      @C533_0
 0001:00045A48      @C533_2
 0001:00045A60      _HB_FUN___OBJHASDATA
 0001:00045A78      _HB_FUN___OBJHASMETHOD
 0001:00045A90      _HB_FUN___OBJGETMSGLIST
 0001:00045AA8      _HB_FUN___OBJGETMSGFULLLIST
 0001:00045AC0      _HB_FUN___OBJGETMETHODLIST
 0001:00045AD8      _HB_FUN___OBJGETVALUELIST
 0001:00045AF0      _HB_FUN___OBJGETVALUEFULLLIST
 0001:00045B08      _HB_FUN___OBJGETVALUEDIFF
 0001:00045B20      _HB_FUN___OBJGETDERIVEDDIFF
 0001:00045B38      _HB_FUN___OBJSETVALUELIST
 0001:00045B50      _HB_FUN___OBJADDMETHOD
 0001:00045B68      _HB_FUN___OBJADDINLINE
 0001:00045B80      _HB_FUN___OBJADDDATA
 0001:00045B98      _HB_FUN___OBJADDACCESSASSIGN
 0001:00045BB0      _HB_FUN___OBJMODMETHOD
 0001:00045BC8      _HB_FUN___OBJMODINLINE
 0001:00045BE0      _HB_FUN___OBJDELMETHOD
 0001:00045BF8      _HB_FUN___OBJDELINLINE
 0001:00045C10      _HB_FUN___OBJSETMETHOD
 0001:00045C28      _HB_FUN___OBJDELDATA
 0001:00045C40      _HB_FUN___OBJDERIVEDFROM
 0001:00045C58      @C565_2
 0001:00045C58      @C565_0
 0001:00045C70      _HB_FUN_HBCLASS
 0001:00045DF0      _HB_FUN___CLASSNEW
 0001:00045E08      _HB_FUN___CLASSADD
 0001:00045E20      _HB_FUN___CLASSINS
 0001:00045E38      _HB_FUN_SCALAROBJECT
 0001:00045E50      _HB_FUN__ARRAY
 0001:00045F10      _HB_FUN__BLOCK
 0001:00045F28      _HB_FUN__CHARACTER
 0001:00045F40      _HB_FUN__DATE
 0001:00045F58      _HB_FUN__LOGICAL
 0001:00045F70      _HB_FUN__NIL
 0001:00045F88      _HB_FUN__NUMERIC
 0001:00045FA0      _HB_FUN__POINTER
 0001:00045FB8      _HB_FUN_UNREF
 0001:00045FE8      @C569_2
 0001:00045FE8      @C569_0
 0001:00046000      _HB_FUN_ERRORNEW
 0001:00046030      @C573_0
 0001:00046030      @C573_2
 0001:0004604C      _HB_FUN_GET
 0001:000463F4      _HB_FUN___GUICOLOR
 0001:0004640C      _HB_FUN_ISDEFCOLOR
 0001:0004643C      @C575_0
 0001:0004643C      @C575_2
 0001:00046454      _HB_FUN_GETNEW
 0001:0004646C      _HB_FUN___GET
 0001:00046484      _HB_FUN___GETA
 0001:0004649C      @C577_0
 0001:0004649C      @C577_2
 0001:000464B8      _HB_FUN_HBGETLIST
 0001:00046740      @C583_0
 0001:00046740      @C583_2
 0001:00046758      _HB_FUN_HBOBJECT
 0001:000467D0      _HB_FUN_TASSOCIATIVEARRAY
 0001:000467E8      _HB_FUN_HASHADDMEMBER
 0001:00046818      @C587_0
 0001:00046818      @C587_2
 0001:00046830      _HB_FUN_TRACELOG
 0001:00046860      @C615_0
 0001:00046A94      _hb_rddInherit
 0001:00046D68      _hb_rddReleaseCurrentArea
 0001:00046FBC      _hb_rddShutDown
 0001:00047024      _hb_rddInsertAreaNode
 0001:00047280      _hb_rddAllocWorkAreaAlias
 0001:00047310      _hb_rddGetCurrentWorkAreaNumber
 0001:00047318      _hb_rddSelectWorkAreaNumber
 0001:000473AC      _hb_rddSelectWorkAreaSymbol
 0001:00047480      _hb_rddSelectWorkAreaAlias
 0001:00047518      _hb_rddGetCurrentWorkAreaPointer
 0001:00047520      _hb_rddFieldIndex
 0001:00047570      _hb_rddIterateWorkAreas
 0001:000475AC      _hb_rddFieldGet
 0001:000475F4      _hb_rddFieldPut
 0001:0004763C      _hb_rddGetFieldValue
 0001:000476BC      _hb_rddPutFieldValue
 0001:0004773C      _HB_FUN_AFIELDS
 0001:0004795C      _HB_FUN_ALIAS
 0001:000479D4      _HB_FUN_DBEVAL
 0001:00047C1C      _HB_FUN_DBF
 0001:00047C60      _HB_FUN_BOF
 0001:00047C9C      _HB_FUN_DBAPPEND
 0001:00047D08      _HB_FUN_DBCLEARFILTER
 0001:00047D34      _HB_FUN_DBCLOSEALL
 0001:00047D3C      _HB_FUN_DBCLOSEAREA
 0001:00047D4C      _HB_FUN_DBCOMMIT
 0001:00047D74      _HB_FUN_DBCOMMITALL
 0001:00047DC0      _HB_FUN_DBCREATE
 0001:00048358      _HB_FUN_DBDELETE
 0001:00048380      _HB_FUN_DBFILTER
 0001:000483D4      _HB_FUN_DBGOBOTTOM
 0001:000483FC      _HB_FUN_DBGOTO
 0001:00048464      _HB_FUN_DBGOTOP
 0001:0004848C      _HB_FUN___DBLOCATE
 0001:00048620      _HB_FUN___DBSETLOCATE
 0001:0004866C      _HB_FUN___DBCONTINUE
 0001:000486E4      _HB_FUN___DBPACK
 0001:000487BC      _HB_FUN_DBRECALL
 0001:000487E4      _HB_FUN_DBRLOCK
 0001:00048890      _HB_FUN_DBRLOCKLIST
 0001:000488EC      _HB_FUN_DBRUNLOCK
 0001:00048928      _HB_FUN_DBSEEK
 0001:00048A48      _HB_FUN_DBSELECTAREA
 0001:00048A94      _HB_FUN___DBSETFOUND
 0001:00048AC4      _HB_FUN_DBSETFILTER
 0001:00048B64      _HB_FUN_DBSKIP
 0001:00048CCC      _HB_FUN_DBSTRUCT
 0001:00048CF0      _HB_FUN_DBTABLEEXT
 0001:00048D94      _HB_FUN_DBUNLOCK
 0001:00048DC4      _HB_FUN_DBUNLOCKALL
 0001:00048E18      _HB_FUN_DBUSEAREA
 0001:000490F4      _HB_FUN___DBZAP
 0001:00049120      _HB_FUN_DELETED
 0001:00049158      _HB_FUN_EOF
 0001:00049194      _HB_FUN_FCOUNT
 0001:000491C4      _HB_FUN_FIELDDEC
 0001:00049230      _HB_FUN_FIELDGET
 0001:000492A4      _HB_FUN_FIELDLEN
 0001:00049310      _HB_FUN_FIELDNAME
 0001:00049390      _HB_FUN_FIELDPOS
 0001:0004940C      _HB_FUN_FIELDPUT
 0001:00049454      _HB_FUN_FIELDTYPE
 0001:000494C0      _HB_FUN_FLOCK
 0001:00049528      _HB_FUN_FOUND
 0001:00049560      _HB_FUN_HEADER
 0001:000495B0      _HB_FUN_INDEXORD
 0001:00049624      _HB_FUN_LASTREC
 0001:00049650      _HB_FUN_LOCK
 0001:000496B8      _HB_FUN_LUPDATE
 0001:000496E8      _HB_FUN_NETERR
 0001:0004972C      _HB_FUN_ORDBAGEXT
 0001:000497D4      _HB_FUN_ORDBAGNAME
 0001:000498FC      _HB_FUN_ORDCONDSET
 0001:00049B84      _HB_FUN_ORDCREATE
 0001:00049C70      _HB_FUN_ORDDESTROY
 0001:00049CD0      _HB_FUN_ORDFOR
 0001:00049E18      _HB_FUN_ORDKEY
 0001:00049F4C      _HB_FUN_ORDKEYCOUNT
 0001:00049FEC      _HB_FUN_ORDKEYNO
 0001:0004A090      _HB_FUN_ORDKEYGOTO
 0001:0004A10C      _HB_FUN_ORDFINDREC
 0001:0004A19C      _HB_FUN_ORDSKIPRAW
 0001:0004A1EC      _HB_FUN_ORDSKIPUNIQUE
 0001:0004A26C      _HB_FUN_ORDKEYVAL
 0001:0004A2D4      _HB_FUN_ORDKEYADD
 0001:0004A388      _HB_FUN_ORDKEYDEL
 0001:0004A43C      _HB_FUN_ORDDESCEND
 0001:0004A4F0      _HB_FUN_ORDISUNIQUE
 0001:0004A5A4      _HB_FUN_ORDCUSTOM
 0001:0004A658      _HB_FUN_ORDCOUNT
 0001:0004A6D0      _HB_FUN_ORDLISTADD
 0001:0004A814      _HB_FUN_ORDLISTCLEAR
 0001:0004A840      _HB_FUN_ORDLISTREBUILD
 0001:0004A86C      _HB_FUN_ORDNAME
 0001:0004A984      _HB_FUN_ORDNUMBER
 0001:0004AA54      _HB_FUN_ORDSETFOCUS
 0001:0004AAF4      _HB_FUN_RDDLIST
 0001:0004AB7C      _HB_FUN_RDDNAME
 0001:0004ABE4      _HB_FUN_RDDREGISTER
 0001:0004AC54      _HB_FUN_RECCOUNT
 0001:0004AC5C      _HB_FUN_RECNO
 0001:0004ACA4      _HB_FUN_RECSIZE
 0001:0004ACF4      _HB_FUN_RLOCK
 0001:0004AD5C      _HB_FUN_SELECT
 0001:0004ADAC      _HB_FUN_USED
 0001:0004ADD0      _HB_FUN___RDDSETDEFAULT
 0001:0004AE20      _HB_FUN_RDDSETDEFAULT
 0001:0004AEC8      _HB_FUN_DBSETDRIVER
 0001:0004AF70      _HB_FUN_ORDSCOPE
 0001:0004B100      _HB_FUN_DBRELATION
 0001:0004B144      _HB_FUN_DBRSELECT
 0001:0004B184      _HB_FUN_DBCLEARRELATION
 0001:0004B198      _HB_FUN_DBSETRELATION
 0001:0004B390      _HB_FUN___DBARRANGE
 0001:0004B798      _HB_FUN_DBINFO
 0001:0004B844      _HB_FUN_DBORDERINFO
 0001:0004B954      _HB_FUN_DBFIELDINFO
 0001:0004BA30      _HB_FUN_DBRECORDINFO
 0001:0004BAEC      _HB_FUN_DBFILEGET
 0001:0004BBF4      _HB_FUN_DBFILEPUT
 0001:0004BCE0      _HB_FUN_DBDROP
 0001:0004BD70      _HB_FUN_DBEXISTS
 0001:0004C7A8      _HB_FUN___DBAPP
 0001:0004C824      _HB_FUN___DBCOPY
 0001:0004C8A0      _HB_FUN_DBUSEAREAD
 0001:0004CB1C      _hb_rddGetTempAlias
 0001:0004CB64      _HB_FUN___RDDGETTEMPALIAS
 0001:0004CB94      _HB_FUN_DBSKIPPER
 0001:0004CEA8      _HB_FUN_DBF2TEXT
 0001:0004D1D8      _hb_waBof
 0001:0004D1D8      @C617_0
 0001:0004D1EC      _hb_waEof
 0001:0004D200      _hb_waFound
 0001:0004D214      _hb_waSkip
 0001:0004D290      _hb_waSkipFilter
 0001:0004D370      _hb_waAddField
 0001:0004D414      _hb_waCreateFields
 0001:0004D620      _hb_waFieldCount
 0001:0004D634      _hb_waFieldInfo
 0001:0004D7B4      _hb_waFieldName
 0001:0004D7FC      _hb_waSetFieldExtent
 0001:0004D844      _hb_waAlias
 0001:0004D928      _hb_waClose
 0001:0004D978      _hb_waInfo
 0001:0004DB20      _hb_waOrderInfo
 0001:0004DB40      _hb_waNewArea
 0001:0004DB68      _hb_waOrderCondition
 0001:0004DBE0      _hb_waRelease
 0001:0004DC20      _hb_waStructSize
 0001:0004DC30      _hb_waSysName
 0001:0004DC40      _hb_waEval
 0001:0004DD78      _hb_waTrans
 0001:0004DD8C      _hb_waTransRec
 0001:0004DDA0      _hb_waChildEnd
 0001:0004DE08      _hb_waChildStart
 0001:0004DE18      _hb_waSyncChildren
 0001:0004DE44      _hb_waClearRel
 0001:0004DEB8      _hb_waRelArea
 0001:0004DF04      _hb_waRelEval
 0001:0004E008      _hb_waRelText
 0001:0004E058      _hb_waSetRel
 0001:0004E0C8      _hb_waClearFilter
 0001:0004E100      _hb_waClearLocate
 0001:0004E194      _hb_waFilterText
 0001:0004E1B4      _hb_waSetFilter
 0001:0004E1FC      _hb_waSetLocate
 0001:0004E290      _hb_waCompile
 0001:0004E2C4      _hb_waError
 0001:0004E32C      _hb_waEvalBlock
 0001:0004E39C      @C619_3
 0001:0004E39C      @C619_0
 0001:0004E95C      _hb_dbfGetEGcode
 0001:0004EA2C      _hb_dbfGetMemoBlock
 0001:0004EAB0      _hb_dbfPutMemoBlock
 0001:0004EB50      _hb_dbfLockIdxGetData
 0001:0004EC38      _hb_dbfLockIdxFile
 0001:00052A18      _hb_dbfExists
 0001:00052AA0      _HB_FUN__DBFC
 0001:00052AA4      _HB_FUN_DBF_GETFUNCTABLE
 0001:00052B10      _HB_FUN_DBSETDBFVERSION
 0001:00052B74      @C623_3
 0001:00052B74      @C623_0
 0001:00052B8C      _HB_FUN__DELIMC
 0001:00052B90      _HB_FUN_DELIM_GETFUNCTABLE
 0001:00052BFC      @C625_0
 0001:00052BFC      @C625_3
 0001:00052C14      _HB_FUN__SDFC
 0001:00052C18      _HB_FUN_SDF_GETFUNCTABLE
 0001:00052C84      @C627_0
 0001:00052C84      @C627_2
 0001:00052CB4      _HB_FUN__DBF
 0001:00052CCC      @C637_0
 0001:00052CCC      _hb_dbQSortInit
 0001:00052D70      _hb_dbQSortExit
 0001:00052DD0      _hb_dbQSortAdvance
 0001:0005328C      _hb_dbQSortComplete
 0001:00053340      @C643_2
 0001:00053340      @C643_0
 0001:00053370      _HB_FUN__DELIM
 0001:00053388      @C647_0
 0001:00053388      @C647_2
 0001:000533A0      _HB_FUN_RDDINIT
 0001:000533B8      _HB_FUN_RDDSYS
 0001:000533D0      @C649_0
 0001:000533D0      @C649_2
 0001:00053400      _HB_FUN__SDF
 0001:00053418      @C651_0
 0001:00053420      _hb_compparse
 0001:000572C4      _hb_macroYYParse
 0001:000572F4      _hb_comperror
 0001:000572FC      _hb_compExprDelete
 0001:000572FC      @C653_0
 0001:0005732C      _hb_compExprFree
 0001:0005735C      _hb_compExprErrorType
 0001:00057374      _hb_compExprCBVarAdd
 0001:000573F4      _hb_compExprNewIIF
 0001:00057400      _hb_compExprNewFunCall
 0001:00057428      _hb_compExprNewString
 0001:0005745C      _hb_compExprNewArrayAt
 0001:000574B0      _hb_compExprSetOperand
 0001:00057520      _hb_compExprGenStatement
 0001:00057560      _hb_compExprGenPush
 0001:000575A0      _hb_compExprGenPop
 0001:000575E0      _hb_compExprCBVarDel
 0001:0005760C      @C655_0
 0001:0005CD8C      @C657_0
 0001:0005CD8C      _hb_compExprDelOperator
 0001:0005CDBC      _hb_compExprPushOperEq
 0001:0005CF20      _hb_compExprUseOperEq
 0001:0005D084      _hb_compExprPushPreOp
 0001:0005D1B4      _hb_compExprPushPostOp
 0001:0005D244      _hb_compExprUsePreOp
 0001:0005D2B8      _hb_compExprUseAliasMacro
 0001:0005D3CC      _hb_compExprReduceList
 0001:0005D410      _hb_compExprCheckMacroVar
 0001:0005D468      _hb_compExprReducePlusStrings
 0001:0005D4C8      @C659_0
 0001:0005D90C      _hb_compFlexNew
 0001:0005D96C      _hb_compFlexDelete
 0001:0005D974      _hb_complex
 0001:0005DAE0      _SimpLex_GetNextToken
 0001:0005E4D8      _SimpLex_CheckToken
 0001:0005E868      _SimpLex_CheckWords
 0001:0005EDF0      _yy_create_buffer
 0001:0005EE04      _yy_switch_to_buffer
 0001:0005EE18      _yy_delete_buffer
 0001:0005EE2C      _yy_bytes_buffer
 0001:0005F0EC      @C673_0
 0001:0005F130      _hb_fsAddSearchPath
 0001:0005F178      _hb_fsFNameSplit
 0001:0005F340      _hb_fsFNameMerge
 0001:0005F42C      _hb_getenv
 0001:0005F42C      @C675_0
 0001:0005F460      _hb_strAt
 0001:0005F460      @C679_0
 0001:0005F4B8      _hb_strupr
 0001:0005F4E0      _hb_strdup
 0001:0005F510      _hb_stricmp
 0001:0005F564      _hb_xstrcat
 0001:0005F5A8      _hb_xstrcpy
 0001:0005F660      _hb_numRound
 0001:0005F744      _hb_numInt
 0001:0005FBA8      _hb_compStrToNum
 0001:0005FBD8      _hb_valStrnToNum
 0001:0005FC00      _hb_strToNum
 0001:0005FC2C      _hb_strnToNum
 0001:0005FC50      _hb_strVal
 0001:0005FC88      _hb_strValInt
 0001:0005FCD8      _hb_strncpy
 0001:0005FD14      _hb_strncat
 0001:0005FD50      _hb_strncpyUpper
 0001:0005FD9C      _hb_strncpyUpperTrim
 0001:0005FE1C      _hb_strncpyTrim
 0001:0005FE84      _hb_stripOutComments
 0001:0005FFBC      _hb_tracestate
 0001:0005FFBC      @C681_0
 0001:0005FFDC      _hb_tracelevel
 0001:0005FFFC      _hb_tr_level
 0001:000600F0      _hb_tr_trace
 0001:000601E4      _hb_verPlatform
 0001:000601E4      @C683_0
 0001:000605C4      _hb_iswinnt
 0001:000605EC      _hb_verCompiler
 0001:00060678      _hb_verHarbour
 0001:000606A0      _hb_verPCode
 0001:000606C0      _hb_verBuildInfo
 0001:0006102C      _hb_builddate
 0001:00061080      _hb_credits
 0001:00061088      @C685_0
 0001:00061088      _hb_compExprNew
 0001:000610B0      _hb_compExprClear
 0001:000610C4      _hb_compExprClone
 0001:000610D0      _hb_compExprDescription
 0001:000610F0      _hb_compExprType
 0001:000610FC      _hb_compExprNewDummy
 0001:00061108      _hb_compExprNewEmpty
 0001:00061114      _hb_compExprNewDouble
 0001:00061144      _hb_compExprNewLong
 0001:0006116C      _hb_compExprNewCodeBlock
 0001:00061184      _hb_compExprNewLogical
 0001:0006119C      _hb_compExprNewNil
 0001:000611AC      _hb_compExprNewSelf
 0001:000611BC      _hb_compExprNewVarRef
 0001:000611D4      _hb_compExprNewMemVarRef
 0001:000611EC      _hb_compExprNewFunRef
 0001:00061204      _hb_compExprNewArray
 0001:00061258      _hb_compExprNewMacro
 0001:000612B0      _hb_compExprNewAliasVar
 0001:000612E8      _hb_compExprNewAliasExpr
 0001:00061314      _hb_compExprNewSend
 0001:0006133C      _hb_compExprNewSendExp
 0001:00061384      _hb_compExprNewWithSend
 0001:000613A8      _hb_compExprNewWithSendExp
 0001:000613EC      _hb_compExprNewMethodCall
 0001:000613FC      _hb_compExprNewWithMethodCall
 0001:0006140C      _hb_compExprNewList
 0001:00061420      _hb_compExprNewArgList
 0001:00061434      _hb_compExprAddListExpr
 0001:0006145C      _hb_compExprNewVar
 0001:00061470      _hb_compExprNewRTVar
 0001:00061494      _hb_compExprNewFunName
 0001:000614A8      _hb_compExprNewAlias
 0001:000614BC      _hb_compExprNewEqual
 0001:000614D4      _hb_compExprNewPlus
 0001:000614EC      _hb_compExprNewMinus
 0001:00061504      _hb_compExprNewMult
 0001:0006151C      _hb_compExprNewDiv
 0001:00061534      _hb_compExprNewMod
 0001:0006154C      _hb_compExprNewPower
 0001:00061564      _hb_compExprNewBitAnd
 0001:0006157C      _hb_compExprNewBitOr
 0001:00061594      _hb_compExprNewBitXOr
 0001:000615AC      _hb_compExprNewBitShiftR
 0001:000615C4      _hb_compExprNewBitShiftL
 0001:000615DC      _hb_compExprNewPostInc
 0001:000615F4      _hb_compExprNewPostDec
 0001:0006160C      _hb_compExprNewPreInc
 0001:00061624      _hb_compExprNewPreDec
 0001:0006163C      _hb_compExprNewPlusEq
 0001:00061654      _hb_compExprNewMinusEq
 0001:0006166C      _hb_compExprNewMultEq
 0001:00061684      _hb_compExprNewDivEq
 0001:0006169C      _hb_compExprNewModEq
 0001:000616B4      _hb_compExprNewExpEq
 0001:000616CC      _hb_compExprNewAnd
 0001:000616E4      _hb_compExprNewOr
 0001:000616FC      _hb_compExprNewMatch
 0001:00061714      _hb_compExprNewLike
 0001:0006172C      _hb_compExprNewNot
 0001:0006175C      _hb_compExprNewEQ
 0001:00061774      _hb_compExprNewLT
 0001:0006178C      _hb_compExprNewGT
 0001:000617A4      _hb_compExprNewLE
 0001:000617BC      _hb_compExprNewGE
 0001:000617D4      _hb_compExprNewNE
 0001:000617EC      _hb_compExprNewIN
 0001:00061804      _hb_compExprNewNegate
 0001:000618A8      _hb_compExprAssign
 0001:000618C0      _hb_compExprListLen
 0001:000618E0      @C687_0
 0001:000618E0      _hb_compExprReduceMod
 0001:0006196C      _hb_compExprReduceDiv
 0001:00061AA8      _hb_compExprReduceMult
 0001:00061BD0      _hb_compExprReduceMinus
 0001:00061CF8      _hb_compExprReducePlus
 0001:00061E70      _hb_compExprReduceIN
 0001:00061EEC      _hb_compExprReduceNE
 0001:00062124      _hb_compExprReduceGE
 0001:00062220      _hb_compExprReduceLE
 0001:0006231C      _hb_compExprReduceGT
 0001:00062418      _hb_compExprReduceLT
 0001:00062514      _hb_compExprReduceEQ
 0001:000626FC      _hb_compExprReduceAnd
 0001:00062824      _hb_compExprReduceOr
 0001:00062950      _hb_compExprReduceBitOp
 0001:00062A90      _hb_compExprReduceIIF
 0001:00062B40      _hb_compExprListStrip
 0001:00062B7C      @C689_0
 0001:00062B7C      _hb_compReservedName
 0001:00062BDC      @C785_3
 0001:00062BDC      @C785_0
 0001:00068444      _HB_FUN__DBFNTX
 0001:00068448      _HB_FUN_DBFNTX_GETFUNCTABLE
 0001:0006974C      @C787_0
 0001:0006974C      @C787_2
 0001:00069764      _HB_FUN_DBFNTXINIT
 0001:0006977C      _HB_FUN_DBFNTX
 0001:00069794      @C791_0
 0001:00069794      _tolower
 0001:000697A4      _toupper
 0001:000697B4      _towlower
 0001:000697C4      _towupper
 0001:000697D4      __get_handle
 0001:0006981C      __dup_handle
 0001:00069884      __free_handle
 0001:00069940      __init_handles
 0001:00069A70      _HB_FUN__DBFDBT
 0001:00069A70      @C795_0
 0001:00069A74      _HB_FUN_DBFDBT_GETFUNCTABLE
 0001:00069AEC      @C795_3
 0001:0006A5B4      @C797_2
 0001:0006A5B4      @C797_0
 0001:0006A5CC      _HB_FUN_DBFDBTINIT
 0001:0006A5E4      _HB_FUN_DBFDBT
 0001:0006A5FC      @C803_0
 0001:0006A5FC      _hb_gt_Init
 0001:0006A730      _hb_gt_Exit
 0001:0006A9C8      _hb_gt_GetScreenWidth
 0001:0006A9F4      _hb_gt_GetScreenHeight
 0001:0006AA20      _hb_gt_Col
 0001:0006AA4C      _hb_gt_Row
 0001:0006AA78      _hb_gt_SetPos
 0001:0006AAE4      _hb_gt_AdjustPos
 0001:0006AAEC      _hb_gt_IsColor
 0001:0006AAF4      _hb_gt_GetCursorStyle
 0001:0006AAFC      _hb_gt_SetCursorStyle
 0001:0006AC00      _hb_gt_DispBegin
 0001:0006AC18      _hb_gt_DispEnd
 0001:0006AC30      _hb_gt_DispCount
 0001:0006AC48      _hb_gt_Puts
 0001:0006ACA8      _hb_gt_Replicate
 0001:0006AD08      _hb_gt_RectSize
 0001:0006AD1C      _hb_gt_GetText
 0001:0006AD84      _hb_gt_PutText
 0001:0006ADEC      _hb_gt_SetAttribute
 0001:0006AE54      _hb_gt_Scroll
 0001:0006B2A4      _hb_gt_SetMode
 0001:0006B2DC      _hb_gt_GetBlink
 0001:0006B2E4      _hb_gt_SetBlink
 0001:0006B2EC      _hb_gt_Version
 0001:0006B304      _hb_gt_Box
 0001:0006B3C4      _hb_gt_BoxD
 0001:0006B484      _hb_gt_BoxS
 0001:0006B544      _hb_gt_HorizLine
 0001:0006B68C      _hb_gt_VertLine
 0001:0006B7F4      _hb_gt_Suspend
 0001:0006B7FC      _hb_gt_Resume
 0001:0006B804      _hb_gt_PreExt
 0001:0006B80C      _hb_gt_PostExt
 0001:0006B814      _hb_gt_OutStd
 0001:0006B830      _hb_gt_OutErr
 0001:0006B84C      _hb_gt_ExtendedKeySupport
 0001:0006B850      _hb_gt_ReadKey
 0001:0006B9E0      _hb_gt_Tone
 0001:0006BB10      _hb_mouse_Init
 0001:0006BB18      _hb_mouse_Exit
 0001:0006BB20      _hb_mouse_IsPresent
 0001:0006BB28      _hb_mouse_Show
 0001:0006BB2C      _hb_mouse_Hide
 0001:0006BB30      _hb_mouse_Col
 0001:0006BB88      _hb_mouse_Row
 0001:0006BBE0      _hb_mouse_SetPos
 0001:0006BC58      _hb_mouse_IsButtonPressed
 0001:0006BCA4      _hb_mouse_CountButton
 0001:0006BCAC      _hb_mouse_SetBounds
 0001:0006BCB4      _hb_mouse_GetBounds
 0001:0006BCBC      _hb_gt_GetClipboard
 0001:0006BD64      _hb_gt_SetClipboard
 0001:0006BDF8      _hb_gt_GetClipboardSize
 0001:0006BE74      _hb_gt_ProcessMessages
 0001:0006BE8C      _hb_gt_info
 0001:0006C2D8      _hb_gt_gfxPrimitive
 0001:0006C960      _hb_gt_gfxText
 0001:0006C968      hb_wvw_gtDlgProcMLess
 0001:0006CB88      hb_wvw_gtDlgProcModal
 0001:0006EBB4      _hb_wvw_gtGetXYFromColRow
 0001:0006FA18      _hb_wvw_gtAddCharToInputQueue
 0001:00071264      _HB_FUN_WVW_NOPENWINDOW
 0001:00071684      _HB_FUN_WVW_LCLOSEWINDOW
 0001:00071738      _HB_FUN_WVW_NNUMWINDOWS
 0001:00071750      _HB_FUN_WVW_XREPOSWINDOW
 0001:00071780      _HB_FUN_WVW_NSETCURWINDOW
 0001:00071818      _HB_FUN_WVW_NROWOFS
 0001:00071888      _HB_FUN_WVW_NCOLOFS
 0001:000718F8      _HB_FUN_WVW_SETMAINCOORD
 0001:00071978      _HB_FUN_WVW_ADDROWS
 0001:00071C68      _HB_FUN_WVW_NOCLOSE
 0001:00071CFC      _HB_FUN_WVW_SETWINSTYLE
 0001:00071DE8      _HB_FUN_WVW_SETPAINTREFRESH
 0001:00071E88      _HB_FUN_WVW_SETVERTCARET
 0001:00071F00      _HB_FUN_WVW_SETDEFLINESPACING
 0001:00071FB0      _HB_FUN_WVW_SETLINESPACING
 0001:0007210C      _HB_FUN_WVW_SETDEFLSPACECOLOR
 0001:00072184      _HB_FUN_WVW_SETLSPACECOLOR
 0001:00072280      _HB_FUN_WVW_NOSTARTUPSUBWINDOW
 0001:000722DC      _hb_wvw_gtSetMenuKeyEvent
 0001:00072308      _hb_wvw_gtSetCentreWindow
 0001:0007236C      _hb_wvw_gtResetWindow
 0001:00072394      _hb_wvw_gtSetCodePage
 0001:000723D0      _hb_wvw_gtGetLastMenuEvent
 0001:000723E8      _hb_wvw_gtSetWindowTitle
 0001:00072408      _hb_wvw_gtSetWindowIcon
 0001:00072480      _hb_wvw_gtSetWindowIconFromFile
 0001:000724E4      _hb_wvw_gtGetWindowTitle
 0001:00072508      _hb_wvw_gtSetFont
 0001:00072614      _hb_wvw_gtGetWindowHandle
 0001:0007262C      _hb_wvw_gtPostMessage
 0001:00072654      _hb_wvw_gtSetWindowPos
 0001:000726B0      _hb_wvw_gtSetAltF4Close
 0001:000726C4      _hb_wvw_gtDoProcessMessages
 0001:000726DC      _hb_wvw_gtSetMouseMove
 0001:00072704      _hb_wvw_gtEnableShortCuts
 0001:0007272C      _hb_wvw_gtDrawImage
 0001:00072968      _hb_wvw_gtLoadPicture
 0001:00072A10      _hb_wvw_gtRenderPicture
 0001:00072B8C      _hb_wvw_gtDestroyPicture
 0001:00072BA8      _hb_wvw_gtGetGlobalData
 0001:00072BB8      _hb_wvw_gtGetColorData
 0001:00072BC8      _hb_wvw_gtSetColorData
 0001:00072BEC      _hb_wvw_gtDrawBoxRaised
 0001:00072DDC      _hb_wvw_gtDrawBoxRecessed
 0001:00072FB8      _hb_wvw_gtDrawOutline
 0001:00073068      _HB_FUN_WVW_SETMENU
 0001:000730E4      _HB_FUN_WVW_SETPOPUPMENU
 0001:00073170      _HB_FUN_WVW_CREATEMENU
 0001:00073184      _HB_FUN_WVW_CREATEPOPUPMENU
 0001:00073198      _HB_FUN_WVW_APPENDMENU
 0001:00073298      _HB_FUN_WVW_DELETEMENU
 0001:000732D4      _HB_FUN_WVW_DESTROYMENU
 0001:00073300      _HB_FUN_WVW_ENABLEMENUITEM
 0001:00073330      _HB_FUN_WVW_GETLASTMENUEVENT
 0001:0007339C      _HB_FUN_WVW_SETMENUKEYEVENT
 0001:00073428      _HB_FUN_WVW_DRAWMENUBAR
 0001:0007348C      _HB_FUN_WVW_GETSCREENWIDTH
 0001:000734A4      _HB_FUN_WVW_GETSCREENHEIGHT
 0001:000734BC      _HB_FUN_WVW_SETWINDOWCENTRE
 0001:0007352C      _HB_FUN_WVW_SETALTF4CLOSE
 0001:00073558      _HB_FUN_WVW_PROCESSMESSAGES
 0001:000735BC      _HB_FUN_WVW_GETTITLE
 0001:0007363C      _HB_FUN_WVW_GETRGBCOLOR
 0001:0007368C      _HB_FUN_WVW_GETCLIPBOARD
 0001:000736EC      _HB_FUN_WVW_SETCLIPBOARD
 0001:000737D4      _HB_FUN_WVW_PASTEFROMCLIPBOARD
 0001:00073848      _HB_FUN_WVW_KEYBOARD
 0001:00073858      _HB_FUN_WVW_INVALIDATERECT
 0001:00073984      _HB_FUN_WVW_ISLBUTTONPRESSED
 0001:000739A8      _HB_FUN_WVW_CLIENTTOSCREEN
 0001:00073ADC      _HB_FUN_WVW_SETFONT
 0001:00073CA8      _HB_FUN_WVW_SETICON
 0001:00073D6C      _HB_FUN_WVW_SETTITLE
 0001:00073DD4      _HB_FUN_WVW_SETWINDOWPOS
 0001:00073E44      _HB_FUN_WVW_GETWINDOWHANDLE
 0001:00073EB0      _HB_FUN_WVW_SETCODEPAGE
 0001:00073F28      _HB_FUN_WVW_CENTERWINDOW
 0001:00074010      _HB_FUN_WVW_SETMOUSEMOVE
 0001:000740E8      _HB_FUN_WVW_GETXYFROMROWCOL
 0001:000741D8      _HB_FUN_WVW_GETFONTINFO
 0001:00074374      _HB_FUN_WVW_GETPALETTE
 0001:000743D4      _HB_FUN_WVW_SETPALETTE
 0001:000743FC      _HB_FUN_WVW_MINIMIZE
 0001:00074464      _HB_FUN_WVW_MAXIMIZE
 0001:000744CC      _HB_FUN_WVW_SETONTOP
 0001:00074580      _HB_FUN_WVW_SETASNORMAL
 0001:00074634      _HB_FUN_WVW_SAVESCREEN
 0001:00074850      _HB_FUN_WVW_RESTSCREEN
 0001:00074AF4      _HB_FUN_WVW_CREATEFONT
 0001:00074DCC      _HB_FUN_WVW_DRAWLABELOBJ
 0001:00075164      _HB_FUN_WVW_DRAWTOOLBUTTONSTATE
 0001:000754F4      _HB_FUN_WVW_DRAWSCROLLBUTTON
 0001:000758FC      _HB_FUN_WVW_DRAWSCROLLTHUMBVERT
 0001:00075B54      _HB_FUN_WVW_DRAWSCROLLTHUMBHORZ
 0001:00075D98      _HB_FUN_WVW_DRAWSHADEDRECT
 0001:0007603C      _HB_FUN_WVW_DRAWTEXTBOX
 0001:00076378      _HB_FUN_WVW_DRAWPROGRESSBAR
 0001:000766EC      _HB_FUN_WVW_GETCURSORPOS
 0001:00076764      _HB_FUN_WVW_TRACKPOPUPMENU
 0001:00076800      _HB_FUN_WVW_GETMENU
 0001:00076874      _HB_FUN_WVW_SHOWWINDOW
 0001:000768FC      _HB_FUN_WVW_UPDATEWINDOW
 0001:00076960      _HB_FUN_WVW_CREATEDIALOGDYNAMIC
 0001:00076BE0      _HB_FUN_WVW_CREATEDIALOGMODAL
 0001:00076DBC      _HB_FUN_WVW__MAKEDLGTEMPLATE
 0001:00077150      _HB_FUN_WVW_LBADDSTRING
 0001:00077180      _HB_FUN_WVW_LBSETCURSEL
 0001:000771B0      _HB_FUN_WVW_CBADDSTRING
 0001:000771E0      _HB_FUN_WVW_CBSETCURSEL
 0001:00077210      _HB_FUN_WVW_DLGSETICON
 0001:000772A0      _HB_FUN_WVW_SETPEN
 0001:00077394      _HB_FUN_WVW_SETBRUSH
 0001:00077494      _HB_FUN_WVW_DRAWBOXGET
 0001:0007781C      _HB_FUN_WVW_DRAWBOXRAISED
 0001:000779B8      _HB_FUN_WVW_DRAWBOXRECESSED
 0001:00077BBC      _HB_FUN_WVW_DRAWBOXGROUP
 0001:00077F3C      _HB_FUN_WVW_DRAWBOXGROUPRAISED
 0001:000781C4      _HB_FUN_WVW_DRAWIMAGE
 0001:00078430      _HB_FUN_WVW_DRAWLABEL
 0001:0007890C      _HB_FUN_WVW_DRAWOUTLINE
 0001:00078AE4      _HB_FUN_WVW_DRAWLINE
 0001:00079144      _HB_FUN_WVW_DRAWELLIPSE
 0001:000793D8      _HB_FUN_WVW_DRAWRECTANGLE
 0001:0007966C      _HB_FUN_WVW_FILLRECTANGLE
 0001:000798D0      _HB_FUN_WVW_DRAWROUNDRECT
 0001:00079BE0      _HB_FUN_WVW_DRAWFOCUSRECT
 0001:00079E40      _HB_FUN_WVW_DRAWCOLORRECT
 0001:0007A0C4      _HB_FUN_WVW_DRAWGRIDHORZ
 0001:0007A218      _HB_FUN_WVW_DRAWGRIDVERT
 0001:0007A488      _HB_FUN_WVW_DRAWBUTTON
 0001:0007A94C      _HB_FUN_WVW_DRAWSTATUSBAR
 0001:0007AD20      _HB_FUN_WVW_CHOOSEFONT
 0001:0007B0DC      _HB_FUN_WVW_CHOOSECOLOR
 0001:0007B1F0      _HB_FUN_WVW_SETMOUSEPOS
 0001:0007B314      _HB_FUN_WVW_GETPAINTRECT
 0001:0007B434      _HB_FUN_WVW_SETPOINTER
 0001:0007B600      _HB_FUN_WVW_LOADPICTURE
 0001:0007B664      _HB_FUN_WVW_LOADFONT
 0001:0007B944      _HB_FUN_WVW_LOADPEN
 0001:0007BA3C      _HB_FUN_WVW_DRAWPICTURE
 0001:0007BC94      _HB_FUN_WVW_DRAWLABELEX
 0001:0007BEEC      _HB_FUN_WVW_DRAWLINEEX
 0001:0007C3A8      _HB_FUN_WVW_DRAWOUTLINEEX
 0001:0007C510      _HB_FUN_WVW_MESSAGEBOX
 0001:0007C5D0      _HB_FUN_WVW_SBCREATE
 0001:0007C6CC      _HB_FUN_WVW_SBDESTROY
 0001:0007C758      _HB_FUN_WVW_SBADDPART
 0001:0007CA5C      _HB_FUN_WVW_SBREFRESH
 0001:0007CB54      _HB_FUN_WVW_SBSETTEXT
 0001:0007CC44      _HB_FUN_WVW_SBGETTEXT
 0001:0007CD18      _HB_FUN_WVW_SBGETPARTS
 0001:0007CD94      _HB_FUN_WVW_SETTIMER
 0001:0007CE3C      _HB_FUN_WVW_KILLTIMER
 0001:0007D734      _HB_FUN_WVW_TBCREATE
 0001:0007DA7C      _HB_FUN_WVW_TBADDBUTTON
 0001:0007DCFC      _HB_FUN_WVW_TBBUTTONCOUNT
 0001:0007DD90      _HB_FUN_WVW_TBDELBUTTON
 0001:0007DE84      _HB_FUN_WVW_TBENABLEBUTTON
 0001:0007DFCC      _HB_FUN_WVW_TBDESTROY
 0001:0007E058      _HB_FUN_WVW_TBINDEX2CMD
 0001:0007E0E0      _HB_FUN_WVW_TBCMD2INDEX
 0001:0007E6D8      _HB_FUN_WVW_XBCREATE
 0001:0007EBD4      _HB_FUN_WVW_XBDESTROY
 0001:0007ECEC      _HB_FUN_WVW_XBUPDATE
 0001:0007EF88      _HB_FUN_WVW_XBENABLE
 0001:0007F234      _HB_FUN_WVW_PBCREATE
 0001:0007F664      _HB_FUN_WVW_PBDESTROY
 0001:0007F77C      _HB_FUN_WVW_PBSETFOCUS
 0001:0007F850      _HB_FUN_WVW_PBENABLE
 0001:0007F97C      _HB_FUN_WVW_PBSETCODEBLOCK
 0001:0007FAEC      _HB_FUN_WVW_PBSETSTYLE
 0001:0007FBE4      _HB_FUN_WVW_PBSETFONT
 0001:0007FEB8      _HB_FUN_WVW_PGCREATE
 0001:00080304      _HB_FUN_WVW_PGDESTROY
 0001:0008041C      _HB_FUN_WVW_PGSETRANGE
 0001:00080584      _HB_FUN_WVW_PGSETPOS
 0001:000806C4      _HB_FUN_WVW_PGGETPOS
 0001:00080B3C      _HB_FUN_WVW_CBCREATE
 0001:00080FD0      _HB_FUN_WVW_CBDESTROY
 0001:000810E8      _HB_FUN_WVW_CBSETFOCUS
 0001:000811BC      _HB_FUN_WVW_CBISFOCUSED
 0001:00081278      _HB_FUN_WVW_CBENABLE
 0001:000813A4      _HB_FUN_WVW_CBSETCODEBLOCK
 0001:00081514      _HB_FUN_WVW_CBSETFONT
 0001:000817E8      _HB_FUN_WVW_CBSETINDEX
 0001:000818B4      _HB_FUN_WVW_CBGETINDEX
 0001:00081954      _HB_FUN_WVW_CBFINDSTRING
 0001:00081A00      _HB_FUN_WVW_CBGETCURTEXT
 0001:00081B10      _HB_FUN_WVW_CBISDROPPED
 0001:00081BC0      _HB_FUN_WIN_SENDMESSAGE
 0001:00081CE8      _HB_FUN_WIN_SENDDLGITEMMESSAGE
 0001:00081DBC      _HB_FUN_WIN_SETTIMER
 0001:00081DFC      _HB_FUN_WIN_SETFOCUS
 0001:00081E0C      _HB_FUN_WIN_SETTEXTCOLOR
 0001:00081E34      _HB_FUN_WIN_SETBKCOLOR
 0001:00081E5C      _HB_FUN_WIN_SETBKMODE
 0001:00081E84      _HB_FUN_WIN_GETSTOCKOBJECT
 0001:00081EA4      _HB_FUN_WIN_DELETEOBJECT
 0001:00081ED0      _HB_FUN_WIN_SELECTOBJECT
 0001:00081EF8      _HB_FUN_WIN_LOWORD
 0001:00081F18      _HB_FUN_WIN_HIWORD
 0001:00081F38      _HB_FUN_WIN_MULDIV
 0001:00081F68      _HB_FUN_WIN_GETDIALOGBASEUNITS
 0001:00081F7C      _HB_FUN_WIN_SETMENU
 0001:00081F94      _HB_FUN_WIN_SETDLGITEMTEXT
 0001:00081FB8      _HB_FUN_WIN_GETDLGITEMTEXT
 0001:00082020      _HB_FUN_WIN_CHECKDLGBUTTON
 0001:00082078      _HB_FUN_WIN_ISDLGBUTTONCHECKED
 0001:000820A0      _HB_FUN_WIN_CHECKRADIOBUTTON
 0001:000820E8      _HB_FUN_WIN_GETDLGITEM
 0001:00082110      _HB_FUN_WIN_MESSAGEBOX
 0001:00082174      _HB_FUN_WIN_INVALIDATERECT
 0001:00082188      _HB_FUN_WIN_LOADICON
 0001:000821DC      _HB_FUN_WIN_LOADIMAGE
 0001:00082254      _HB_FUN_WIN_GETCLIENTRECT
 0001:0008231C      _HB_FUN_WIN_GETDC
 0001:0008233C      _HB_FUN_WIN_RELEASEDC
 0001:00082370      _HB_FUN_WIN_RECTANGLE
 0001:000823A4      _HB_FUN_WIN_CREATEBRUSH
 0001:0008243C      _HB_FUN_WIN_DRAWTEXT
 0001:000824D4      @C819_0
 0001:000824D4      ___org_calloc
 0001:000824D4      _calloc
 0001:00082500      ___org_delete
 0001:00082500      @C821_0
 0001:00082500      @$bdele$qpv
 0001:00082510      @C823_0
 0001:00082510      @$bdla$qpv
 0001:00082510      ___org_deletea
 0001:00082520      @C849_0
 0001:00082520      @_virt_reserve
 0001:0008258C      @_virt_alloc
 0001:000825B4      @_virt_commit
 0001:00082600      @_virt_decommit
 0001:00082618      @_virt_release
 0001:00082634      @C851_0
 0001:00082654      ___CRTL_MEM_GetBorMemPtrs
 0001:000826D0      ___CRTL_MEM_CheckBorMem
 0001:000826D4      _malloc
 0001:000826D4      ___org_malloc
 0001:000826D4      @C857_0
 0001:000826E4      ___org_free
 0001:000826E4      _free
 0001:000826F4      ___org_realloc
 0001:000826F4      @C859_0
 0001:000826F4      _realloc
 0001:0008270C      @C861_0
 0001:0008270C      ___CRTL_MEM_Revector
 0001:000827A8      @C861_2
 0001:000827B4      __free_heaps
 0001:000827C4      ___CRTL_MEM_UseBorMM
 0001:000827C4      @C863_0
 0001:000827C8      @C867_0
 0001:00082DAC      __internal_free
 0001:00082F1C      __internal_malloc
 0001:0008311C      __phys_avail
 0001:00083134      __internal_free_heaps
 0001:00083194      @C887_0
 0001:00083194      __expand
 0001:00083194      ___org__expand
 0001:00083374      __internal_realloc
 0001:0008340C      ___org__msize
 0001:0008340C      __msize
 0001:00083428      @C889_0
 0001:00083428      ___CRTL_VCL_Init
 0001:0008342C      @C893_0
 0001:0008342C      ___CRTL_VCLLIB_Linkage
 0001:00083430      @C1032_0
 0001:00083430      ___org_memchr
 0001:00083430      _memchr
 0001:00083450      ___org_memcpy
 0001:00083450      _memcpy
 0001:00083450      @C1036_0
 0001:00083474      @C1040_0
 0001:00083474      ___org_memmove
 0001:00083474      _memmove
 0001:000834C0      @C1042_0
 0001:000834C0      ___org_memset
 0001:000834C0      _memset
 0001:0008354C      @C1044_0
 0001:0008354C      __wmemset
 0001:00083564      @C1058_0
 0001:00083564      _strcat
 0001:00083564      ___org_strcat
 0001:000835A0      @C1060_0
 0001:000835A0      _strchr
 0001:000835A0      ___org_strchr
 0001:000835F4      @C1066_0
 0001:000835F4      ___org_strlen
 0001:000835F4      _strlen
 0001:00083650      _strncat
 0001:00083650      @C1068_0
 0001:00083650      ___org_strncat
 0001:000836C0      ___org_strncmp
 0001:000836C0      @C1070_0
 0001:000836C0      _strncmp
 0001:000836E8      ___org_memcmp
 0001:000836E8      @C1084_0
 0001:000836E8      _memcmp
 0001:00083754      _strdup
 0001:00083754      @C1090_0
 0001:00083754      ___org_strdup
 0001:00083788      _strncpy
 0001:00083788      @C1096_0
 0001:00083788      ___org_strncpy
 0001:000837D8      @C1102_0
 0001:000837D8      _strpbrk
 0001:000837D8      ___org_strpbrk
 0001:00083804      _strrchr
 0001:00083804      @C1104_0
 0001:00083804      ___org_strrchr
 0001:00083830      _strstr
 0001:00083830      @C1112_0
 0001:00083830      ___org_strstr
 0001:00083884      _strtok
 0001:00083884      ___org_strtok
 0001:00083884      @C1114_0
 0001:000838EC      __stpcpy
 0001:000838EC      @C1116_0
 0001:00083924      _wcslen
 0001:00083924      @C1118_0
 0001:0008393C      _wcscpy
 0001:0008393C      @C1120_0
 0001:0008397C      @C1160_0
 0001:0008397C      @__InitExceptBlockLDTC
 0001:000839B5      @__ExitExceptBlock
 0001:000839C3      __ExceptionHandler
 0001:000839EC      @C1164_0
 0001:00083B43      @C1164_3
 0001:00083EA0      @__typeIDname$qp4tpid
 0001:00083ED8      @__isSameTypeID$qp4tpidt1
 0001:00083FB4      @__isCompatTypeID$qp4tpidt1ipp4tpid
 0001:000840C4      @__adjustClassAdr$qpvp4tpidt2
 0001:00084140      @_InitTermAndUnexPtrs$qv
 0001:00084168      @std@terminate$qv
 0001:000841B8      @std@unexpected$qv
 0001:000841E0      @C1168_4
 0001:000841E0      @C1168_0
 0001:0008420C      ___call_terminate
 0001:00084280      ___call_unexpected
 0001:000842B8      __ExceptInit
 0001:00084304      __GetExceptDLLinfoInternal
 0001:0008432C      @C1170_0
 0001:0008432C      ___DefHandler
 0001:00084338      @C1174_0
 0001:00084428      __setexc
 0001:00084444      __unsetexc
 0001:00084454      __SetUserHandler
 0001:00084468      __unsetuserhandler
 0001:00084474      __init_except
 0001:00084474      @C1174_3
 0001:0008448C      @C1174_4
 0001:0008448C      __exit_except
 0001:000844A0      __InitDefaultHander
 0001:000844B4      __SetExceptionHandler
 0001:000844B4      @C1178_0
 0001:000844C9      __UnsetExceptionHandler
 0001:000844F5      __UnwindException
 0001:000844FC      @C1180_0
 0001:000844FC      @jump$qv
 0001:00084502      ___doGlobalUnwind
 0001:00084517      @invokeHnd$qv
 0001:00084520      ___access
 0001:00084520      @C1184_0
 0001:0008455C      ___close
 0001:0008455C      @C1186_0
 0001:000845BC      ___dup
 0001:000845BC      @C1188_0
 0001:000845D0      @C1190_0
 0001:000845D0      ___dup2
 0001:000846C0      @C1192_0
 0001:000846C0      ___eof
 0001:00084748      @C1196_0
 0001:00084748      ___isatty
 0001:00084778      ___isatty_osfhandle
 0001:00084790      ___lseek
 0001:00084790      @C1198_0
 0001:00084808      ___open
 0001:00084808      @C1200_0
 0001:00084A04      @C1202_0
 0001:00084A70      ___read
 0001:00084BA0      ___write
 0001:00084BA0      @C1208_0
 0001:00084CBC      @C1210_0
 0001:00084CD0      @C1228_0
 0001:00084CD0      __flushall
 0001:00084D08      @C1252_0
 0001:00084D08      ___org__rtl_read
 0001:00084D08      __rtl_read
 0001:00084D50      ___org__read
 0001:00084D50      __read
 0001:00084D6C      ___org__rtl_write
 0001:00084D6C      __rtl_write
 0001:00084D6C      @C1284_0
 0001:00084DB4      ___org__write
 0001:00084DB4      __write
 0001:00084DD0      _access
 0001:00084DD0      ___org_access
 0001:00084DD0      @C1286_0
 0001:00084DD8      __allocbuf
 0001:00084DD8      @C1288_0
 0001:00084E58      __chdrive
 0001:00084E58      ___org__chdrive
 0001:00084E58      @C1294_0
 0001:00084E88      __getdrive
 0001:00084EF4      _close
 0001:00084EF4      ___org_close
 0001:00084EF4      @C1302_0
 0001:00084EFC      ___org_dup
 0001:00084EFC      @C1335_0
 0001:00084EFC      _dup
 0001:00084F04      @C1339_0
 0001:00084F04      _eof
 0001:00084F04      ___org_eof
 0001:00084F0C      _fclose
 0001:00084F0C      ___org_fclose
 0001:00084F0C      @C1341_0
 0001:00084F9C      ___org_fflush
 0001:00084F9C      @C1349_0
 0001:00084F9C      _fflush
 0001:0008501C      __flushout
 0001:0008501C      @C1369_0
 0001:00085078      @C1373_0
 0001:00085078      __initfmode
 0001:00085088      __initfileinfo
 0001:0008509C      @C1378_0
 0001:00085178      ___openfp
 0001:00085224      ___getfp
 0001:00085250      ___org_fopen
 0001:00085250      _fopen
 0001:0008527C      _fprintf
 0001:0008527C      @C1380_0
 0001:0008527C      ___org_fprintf
 0001:000852A0      @C1386_0
 0001:000852A0      ___fputn
 0001:0008537C      @C1404_0
 0001:000853D8      _fseek
 0001:000853D8      ___org_fseek
 0001:0008543C      ___org_ftell
 0001:0008543C      _ftell
 0001:000854BC      ___IOerror
 0001:000854BC      @C1435_0
 0001:00085500      ___DOSerror
 0001:00085520      ___NTerror
 0001:00085534      ___org_isatty
 0001:00085534      _isatty
 0001:00085534      @C1439_0
 0001:0008553C      @C1441_0
 0001:000855DC      __fgetc
 0001:000855DC      ___org__fgetc
 0001:000855F4      _fgetc
 0001:000855F4      ___org_fgetc
 0001:000856DC      ___org_fputc
 0001:000856DC      @C1449_0
 0001:000856DC      _fputc
 0001:000857EC      ___mkname
 0001:000857EC      @C1459_0
 0001:0008583C      ___tmpnam
 0001:00085880      @C1469_0
 0001:00085880      ___org_printf
 0001:00085880      _printf
 0001:000858A4      @C1511_0
 0001:000858A4      ___org_setmode
 0001:000858A4      _setmode
 0001:00085910      @C1513_0
 0001:00085910      ___org_setvbuf
 0001:00085910      _setvbuf
 0001:00085960      @C1515_0
 0001:00085990      ___org_snprintf
 0001:00085990      _snprintf
 0001:000859C0      _vsnprintf
 0001:000859C0      ___org_vsnprintf
 0001:000859F0      __snprintf
 0001:000859F0      ___org__snprintf
 0001:00085A28      ___org__vsnprintf
 0001:00085A28      __vsnprintf
 0001:00085A60      @C1522_0
 0001:00085A88      ___org_sprintf
 0001:00085A88      _sprintf
 0001:00085AB0      ___org_vsprintf
 0001:00085AB0      _vsprintf
 0001:00085AD8      @C1534_0
 0001:00085AD8      __init_streams
 0001:00085B94      @C1534_1
 0001:00085B94      __exit_streams
 0001:00085BF0      __unlink
 0001:00085BF0      @C1550_0
 0001:00085C0C      ___org_vfprintf
 0001:00085C0C      _vfprintf
 0001:00085C0C      @C1554_0
 0001:00085C30      @C1562_0
 0001:00085CE0      ___vprinter
 0001:0008661C      __xfclose
 0001:0008661C      @C1638_0
 0001:0008664C      __xfflush
 0001:0008664C      @C1640_0
 0001:00086674      @C1654_0
 0001:00086674      __getLocaleNumericInfo
 0001:000866C8      _isalnum
 0001:000866C8      @C1661_0
 0001:000866E0      _isascii
 0001:000866F4      _isalpha
 0001:0008670C      _iscntrl
 0001:00086720      _isdigit
 0001:00086734      _isgraph
 0001:0008674C      _islower
 0001:00086760      _isprint
 0001:00086778      _ispunct
 0001:0008678C      _isspace
 0001:000867A0      _isupper
 0001:000867B4      _isxdigit
 0001:000867CC      @C1663_0
 0001:000867CC      _iswalnum
 0001:000867E4      _iswascii
 0001:000867F8      _iswalpha
 0001:00086810      _iswcntrl
 0001:00086824      _iswdigit
 0001:00086838      _iswgraph
 0001:00086850      _iswlower
 0001:00086864      _iswprint
 0001:0008687C      _iswpunct
 0001:00086890      _iswspace
 0001:000868A4      _iswupper
 0001:000868B8      _iswxdigit
 0001:000868D0      @C1665_0
 0001:000868D0      ___isctype
 0001:00086914      ___iswctype
 0001:00086914      @C1667_0
 0001:0008696C      __ltolower
 0001:0008696C      @C1705_0
 0001:000869C0      __ltowlower
 0001:000869C0      @C1707_0
 0001:00086A14      __ltoupper
 0001:00086A14      @C1709_0
 0001:00086A68      __ltowupper
 0001:00086A68      @C1711_0
 0001:00086ABC      @C1713_0
 0001:00086ABC      _mblen
 0001:00086ABC      ___org_mblen
 0001:00086B38      ___org_mbtowc
 0001:00086B38      _mbtowc
 0001:00086C0C      ___org_wctomb
 0001:00086C0C      _wctomb
 0001:00086C80      ___org_mbstowcs
 0001:00086C80      _mbstowcs
 0001:00086DE8      ___org_wcstombs
 0001:00086DE8      _wcstombs
 0001:00086F8C      __llmul
 0001:00086F8C      @C1763_0
 0001:00086FAF      __lldiv
 0001:00087027      __lludiv
 0001:00087070      __llmod
 0001:000870EA      __llumod
 0001:00087138      __llshl
 0001:00087154      __llshr
 0001:00087170      __llushr
 0001:0008718C      @C1777_0
 0001:0008718C      __finite
 0001:000871AC      __isnan
 0001:000871AC      @C1787_0
 0001:000871F4      @C1797_0
 0001:000871F4      ___matherr
 0001:000872A4      @C1803_0
 0001:000872A4      __pow10
 0001:0008742C      ___org_atol
 0001:0008742C      _atol
 0001:0008742C      @C1826_0
 0001:00087494      ___org_atoi
 0001:00087494      _atoi
 0001:000874A4      ___org_ceil
 0001:000874A4      @C1834_0
 0001:000874A4      _ceil
 0001:000874C0      @C1838_0
 0001:000874C0      __clear87
 0001:000874D4      @C1852_0
 0001:000874D4      __control87
 0001:00087504      ___realcvt
 0001:00087504      @C1854_0
 0001:0008750A      ___nextreal
 0001:00087510      __scantod
 0001:00087516      __scanrslt
 0001:0008751C      @C1858_0
 0001:00087534      @C1860_0
 0001:0008754C      ___org_exp
 0001:0008754C      _exp
 0001:0008754C      @C1868_0
 0001:000875B8      @C1876_0
 0001:000875B8      __f87_Exp2
 0001:000875BD      __f87_Exp10
 0001:000875C5      __f87_Exp
 0001:00087688      @C1878_0
 0001:00087688      __f87_Log2
 0001:0008768C      __f87_Log10
 0001:00087690      __f87_Log
 0001:000876D0      @C1896_0
 0001:000876D0      _fmod
 0001:00087720      __fpreset
 0001:00087720      @C1900_0
 0001:00087738      __ftol
 0001:00087738      @_ftol$qv
 0001:00087738      @C1906_0
 0001:00087760      __fuildq
 0001:00087760      @C1908_0
 0001:00087790      __fuistq
 0001:00087790      @C1910_0
 0001:000877B4      __fxam
 0001:000877B4      @C1912_0
 0001:000877C8      @C1928_0
 0001:000877C8      ___int64toa
 0001:0008787C      ___ldtrunc
 0001:0008787C      @C1938_0
 0001:00087994      _log
 0001:00087994      ___org_log
 0001:00087994      @C1940_0
 0001:00087A04      @C1948_0
 0001:00087A04      ___longtoa
 0001:00087A78      ___utoa
 0001:00087A94      _itoa
 0001:00087A94      ___org_itoa
 0001:00087A94      @C1956_0
 0001:00087AC4      _ultoa
 0001:00087AC4      ___org_ultoa
 0001:00087AE4      __ltoa
 0001:00087B0C      @C1962_0
 0001:00087B0C      ___org__matherrl
 0001:00087B0C      __matherrl
 0001:00087B3C      @C1964_0
 0001:00087B3C      __initmatherr
 0001:00087B54      @C1970_0
 0001:00087B54      _modf
 0001:00087B54      ___org_modf
 0001:00087B84      @C1978_0
 0001:00087B84      ___org_pow
 0001:00087B84      _pow
 0001:00087D60      __qdiv10
 0001:00087D60      @C1986_0
 0001:00087D88      @C1988_0
 0001:00087D88      __qmul10
 0001:00087DB8      _srand
 0001:00087DB8      @C1990_0
 0001:00087DD4      @C1990_2
 0001:00087DE0      _rand
 0001:00087DFC      __lrand
 0001:00087E48      @C1992_0
 0001:0008812C      __cvt_init
 0001:00088144      @C1994_0
 0001:00088460      __cvt_initw
 0001:00088478      @C1999_0
 0001:00088478      __round
 0001:000884A4      @C2001_0
 0001:00088970      __scan_init
 0001:00088988      @C2003_0
 0001:00088E50      __scan_initw
 0001:00088E68      @C2013_0
 0001:00088E68      ___org_sqrt
 0001:00088E68      _sqrt
 0001:00088EA4      ___xcvt
 0001:00088EA4      @C2047_0
 0001:00089178      @C2049_0
 0001:00089178      ___xcvtw
 0001:0008946C      __setmbcp
 0001:0008946C      @C2061_0
 0001:00089590      __getmbcp
 0001:00089598      __initMBCSTable
 0001:00089598      @C2061_3
 0001:000895A8      __ismbcalpha
 0001:000895A8      @C2063_0
 0001:000895E8      @C2065_0
 0001:000895E8      __ismbcdigit
 0001:00089604      __ismbcspace
 0001:00089604      @C2083_0
 0001:00089620      @C2121_0
 0001:00089620      __mbsnbcpy
 0001:00089674      __mbsnbicmp
 0001:00089674      @C2123_0
 0001:00089734      __mbsrchr
 0001:00089734      @C2145_0
 0001:0008978C      @C2197_0
 0001:000897D4      __assert
 0001:00089834      @C2213_0
 0001:00089884      __ErrorMessageHelper
 0001:000898EC      @C2217_0
 0001:00089944      __ErrorMessage
 0001:00089A60      ___ErrorMessage
 0001:00089A70      __ErrorExit
 0001:00089A88      @C2225_3
 0001:00089A88      @C2225_0
 0001:00089B14      @C2229_0
 0001:00089D20      _qsort
 0001:00089D20      ___org_qsort
 0001:00089D4C      @C2244_0
 0001:00089D4C      __abort
 0001:00089D60      _abort
 0001:00089D70      @C2282_0
 0001:00089DC8      _exit
 0001:00089DE0      __exit
 0001:00089DF8      __cexit
 0001:00089E08      __c_exit
 0001:00089E18      ___org_getenv
 0001:00089E18      @C2284_0
 0001:00089E18      _getenv
 0001:00089E70      @C2290_0
 0001:00089E70      __init_wild_handlers
 0001:00089E8C      @C2292_0
 0001:00089E8C      __argv_default_expand
 0001:00089EA0      @C2294_0
 0001:00089EA0      __wargv_default_expand
 0001:00089EB4      __init_setargv_handlers
 0001:00089EB4      @C2300_0
 0001:00089EDC      __setargv
 0001:00089EDC      @C2306_3
 0001:00089EDC      @C2306_0
 0001:00089F64      __exitargv
 0001:00089F64      @C2306_4
 0001:0008A048      __handle_setargv
 0001:0008A048      @C2308_0
 0001:0008A1A0      __handle_exitargv
 0001:0008A230      __handle_wsetargv
 0001:0008A230      @C2310_0
 0001:0008A3C4      __handle_wexitargv
 0001:0008A458      @C2367_2
 0001:0008A458      @C2367_0
 0001:0008A490      @C2367_3
 0001:0008A4A0      @C2381_4
 0001:0008A4A0      @C2381_0
 0001:0008A4D4      __expandblock
 0001:0008A620      @C2381_3
 0001:0008A640      @C2385_0
 0001:0008A868      _signal
 0001:0008A8C8      _raise
 0001:0008A8C8      ___org_raise
 0001:0008A938      __terminate
 0001:0008A938      @C2404_0
 0001:0008A948      __create_shmem
 0001:0008A950      __init_exit_proc
 0001:0008AA24      __cleanup
 0001:0008AA90      __startup
 0001:0008AA90      @C2406_0
 0001:0008AC34      @C2420_0
 0001:0008AC34      ___CRTL_TLS_Alloc
 0001:0008AC3C      ___CRTL_TLS_Free
 0001:0008AC4C      ___CRTL_TLS_GetValue
 0001:0008AC5C      ___CRTL_TLS_SetValue
 0001:0008AC70      ___CRTL_TLS_InitThread
 0001:0008AC78      ___CRTL_TLS_ExitThread
 0001:0008AC80      ___CRTL_TLS_GetInfo
 0001:0008AC84      @C2428_0
 0001:0008ADF0      ___org_gmtime
 0001:0008ADF0      _gmtime
 0001:0008AE08      ___org_localtime
 0001:0008AE08      _localtime
 0001:0008AE30      @C2438_0
 0001:0008AE30      __isDST
 0001:0008AF44      __totalsec
 0001:0008B0D4      @C2440_2
 0001:0008B0D4      @C2440_0
 0001:0008B0DC      @C2442_0
 0001:0008B0DC      __tzset
 0001:0008B2A4      _tzset
 0001:0008B2A4      @C2444_0
 0001:0008B2AC      @C2448_0
 0001:0008B2AC      _clock
 0001:0008B2B8      @C2448_2
 0001:0008B2C4      ___org_ftime
 0001:0008B2C4      _ftime
 0001:0008B2C4      @C2454_0
 0001:0008B364      _time
 0001:0008B364      @C2470_0
 0001:0008B364      ___org_time
 0001:0008B3B4      @C2498_0
 0001:0008B3B4      @C2498_3
 0001:0008B3DF      ___JumpToCatch__
 0001:0008B649      ___raiseDebuggerException
 0001:0008BA04      @_ThrowExceptionLDTC$qpvt1t1t1uiuiuipuct1
 0001:0008BA39      @_ReThrowException$quipuc
 0001:0008BAA4      __Global_unwind
 0001:0008BBE0      @_CatchCleanup$qv
 0001:0008C110      __Local_unwind
 0001:0008C123      __Return_unwind
 0001:0008C184      ____ExceptionHandler
 0001:0008CF02      __CurrExcContext
 0002:00000164      @D1_1
 0002:000001A8      ___isGUI
 0002:000001E0      ___isVCLPackage
 0002:000001E1      ___isDLL
 0002:000001EE      ___useDynamicTLS
 0002:000001EF      __TLS_index
 0002:000001F3      __TLS_index4
 0002:000001F7      __hInstance
 0002:000001FC      ___CPPdebugHook
 0002:000001FC      ___CPPdebugHook_segment
 0002:00000200      __PackageInfoTable
 0002:00000208      @D2_1
 0002:00000BC8      @D43_1
 0002:00001540      @D127_1
 0002:00001770      @D133_1
 0002:00001798      _hb_cls_uiArrayClass
 0002:0000179A      _hb_cls_uiBlockClass
 0002:0000179C      _hb_cls_uiCharacterClass
 0002:0000179E      _hb_cls_uiDateClass
 0002:000017A0      _hb_cls_uiLogicalClass
 0002:000017A2      _hb_cls_uiNilClass
 0002:000017A4      _hb_cls_uiNumericClass
 0002:000017A6      _hb_cls_uiPointerClass
 0002:000017A8      _hb_symDestructor
 0002:00001A74      @D135_1
 0002:00001A7C      _b_MouseEnable
 0002:00001A80      _hb_hInstance
 0002:00001A84      _hb_hPrevInstance
 0002:00001B4C      @D145_1
 0002:00001B5C      @D147_1
 0002:00001D38      @D149_1
 0002:00001D38      _hb_stack_ptr
 0002:00001E78      @D151_1
 0002:00001E94      @D155_1
 0002:00001E98      @D157_1
 0002:000021C8      @D159_1
 0002:000021D4      _hb_gc_bReleaseAll
 0002:000021E0      @D161_1
 0002:0000240C      @D163_1
 0002:000024A4      @D165_1
 0002:000024A4      _hb_vm_iExtraParamsIndex
 0002:000024A8      _hb_vm_iExtraElementsIndex
 0002:000024AC      _hb_vm_iExtraElements
 0002:000024B0      _hb_bProfiler
 0002:000024B4      _hb_bTracePrgCalls
 0002:000024B8      _hb_symEval
 0002:000024D8      _hb_vm_sNull
 0002:000024DC      _hb_vm_acAscii
 0002:000028DC      _hb_vm_bWithObject
 0002:000028E0      _hb_vm_wEnumCollectionCounter
 0002:000028E4      _hb_vm_iTry
 0002:000028E8      _hb_vm_BreakBlock
 0002:00003314      @D171_1
 0002:0000387C      @D173_1
 0002:000038A0      @D175_1
 0002:00003948      _hb_comp_bShortCuts
 0002:00003948      @D177_1
 0002:0000396C      _argc
 0002:0000396C      @D183_1
 0002:00003970      @D185_1
 0002:00003A3C      @D191_1
 0002:00003B04      @D199_1
 0002:00003F4C      @D201_1
 0002:00003F50      @D207_1
 0002:00003F5C      @D209_1
 0002:00003F6C      @D215_1
 0002:00003F78      @D217_1
 0002:00004178      _hb_uniTbl_437
 0002:000041CC      _hb_cdp_page
 0002:000041DC      @D219_1
 0002:000041E4      @D221_1
 0002:000041E8      @D223_1
 0002:0000420C      @D227_1
 0002:0000421C      @D229_1
 0002:0000425C      @D231_1
 0002:0000429C      @D253_1
 0002:000042B4      @D255_1
 0002:000042B8      @D261_1
 0002:0000434C      @D265_1
 0002:00004350      @D271_1
 0002:00004368      _hb_gt_gcoldefs
 0002:000044D4      @D281_1
 0002:00004534      @D291_1
 0002:00004554      @D293_1
 0002:00004584      @D299_1
 0002:00004588      @D301_1
 0002:000048E8      @D309_1
 0002:000048FC      _hb_vm_bCollectGarbage
 0002:00004900      @D311_1
 0002:00004940      @D317_1
 0002:000049A0      @D319_1
 0002:000049A8      @D321_1
 0002:000049AC      @D325_1
 0002:00004B00      @D331_1
 0002:00004B08      @D339_1
 0002:00004B18      @D345_1
 0002:00004B50      @D357_1
 0002:00004B54      @D359_1
 0002:00004B58      @D361_1
 0002:00004B5C      @D363_1
 0002:00004C3C      @D373_1
 0002:00004DA4      _pcre_malloc
 0002:00004DA8      _pcre_free
 0002:000059D0      @D375_1
 0002:000059DC      @D379_1
 0002:000059E8      @D391_1
 0002:000059E8      _hb_set_ptr
 0002:00005A94      @D411_1
 0002:00005A9C      @D413_1
 0002:00005AA0      @D415_1
 0002:00005AA4      @D419_1
 0002:00005AB0      @D421_1
 0002:00005AB4      @D429_1
 0002:00005AC0      @D433_1
 0002:00005AC4      @D435_1
 0002:00005ACC      @D441_1
 0002:00005B48      @D443_1
 0002:00005B74      @D445_1
 0002:00005C00      @D447_1
 0002:00005C10      @D451_1
 0002:00005C18      @D453_1
 0002:00005C1C      @D457_1
 0002:00005C28      @D459_1
 0002:00005C80      @D461_1
 0002:00005C88      @D463_1
 0002:00005C90      @D465_1
 0002:00005C94      @D471_1
 0002:00006E70      @D483_1
 0002:000076A4      @D485_1
 0002:00008518      @D505_1
 0002:0000A1AC      @D509_1
 0002:0000A2C4      @D511_1
 0002:0000B210      @D527_1
 0002:0000B2E8      @D531_1
 0002:0000BDE4      @D533_1
 0002:0000CF70      @D565_1
 0002:0000F0D0      @D569_1
 0002:0000F5D8      @D573_1
 0002:0001468C      @D575_1
 0002:00014A38      @D577_1
 0002:00018710      @D583_1
 0002:00018E84      @D587_1
 0002:00019294      @D615_1
 0002:00019910      @D617_1
 0002:00019964      @D619_1
 0002:00019B5C      @D623_1
 0002:00019D28      @D625_1
 0002:00019EF0      @D627_1
 0002:00019F6C      @D643_1
 0002:00019FF4      @D647_1
 0002:0001A094      @D649_1
 0002:0001A114      @D651_1
 0002:0001C9B4      @D653_1
 0002:0001C9F4      @D655_1
 0002:0001C9F4      _hb_comp_ExprTable
 0002:0001CB4C      @D659_1
 0002:0001CB78      _yytext
 0002:0001CC38      _aPairs
 0002:0001D7C0      @D673_1
 0002:0001D7C8      @D679_1
 0002:0001D850      _hb_tr_file_
 0002:0001D850      @D681_1
 0002:0001D854      _hb_tr_line_
 0002:0001D858      _hb_tr_level_
 0002:0001D910      @D683_1
 0002:0001E8C0      @D685_1
 0002:0001EA38      @D689_1
 0002:0001EC8C      @D785_1
 0002:0001F0D0      @D787_1
 0002:0001F160      __streams
 0002:0001F160      @D789_0
 0002:00023300      __nfile
 0002:00023300      @D793_0
 0002:00023304      __openfd
 0002:00023DF4      @D795_1
 0002:00023FD4      @D797_1
 0002:00024064      @D803_1
 0002:00024E30      @D849_1
 0002:00024E34      @D851_1
 0002:00024ECC      @D861_1
 0002:00024ED0      __heap_redirector
 0002:00024EEC      __virt_heap_size
 0002:00024EEC      @D867_1
 0002:00024EF0      __virt_chunk_size
 0002:00024EF4      __virt_chunk_size2
 0002:00024EF8      __nv_heap_size
 0002:00024EFC      __smalloc_threshold
 0002:00024F00      __virt_chunk_free
 0002:00024F04      __virt_chunk_free2
 0002:00024F08      __firstHeap
 0002:00024F0C      __lastHeap
 0002:00024F10      __linktable
 0002:00024F14      __freeStart
 0002:00024F20      __rover
 0002:00024F28      ___allocated
 0002:00024F2C      ___xxPersonality
 0002:00024F2C      @D1162_0
 0002:00024F30      @D1164_1
 0002:00025250      @D1166_1
 0002:00025250      ___terminatePTR
 0002:00025254      ___unexpectdPTR
 0002:00025258      @_$CHNC$@std@terminate$qv
 0002:00025278      @_$ECTOC$@std@terminate$qv
 0002:0002528C      ___CPPexceptionList
 0002:0002528C      @D1168_1
 0002:00025290      ___exceptFlags
 0002:00025294      ___throwFileName
 0002:00025298      ___throwLineNumber
 0002:0002529C      ___throwExceptionName
 0002:000252A0      ___exceptStaticBuffP
 0002:000252A4      ___exceptMemAllocVars
 0002:000252A8      ___ExceptStaticXbuff
 0002:00025328      __ExceptVarsSize
 0002:0002533C      @_$CHNC$@__call_terminate$qv
 0002:0002535C      @_$ECTOC$@__call_terminate$qv
 0002:00025370      __stkchk
 0002:00025370      @D1174_1
 0002:00025384      @D1190_1
 0002:00025390      @D1210_1
 0002:00025390      __cfinfo_get
 0002:00025394      __notUmask
 0002:00025394      @D1264_1
 0002:00025398      @D1290_0
 0002:00025398      __fileinfo
 0002:0002539C      @D1371_0
 0002:0002539C      __fmode
 0002:000253A0      __fmodeptr
 0002:000253A0      @D1373_1
 0002:000253A4      __dosErrorToSV
 0002:000253A4      @D1435_1
 0002:000254D0      @D1459_1
 0002:000254DC      __sys_errlist
 0002:000254DC      @D1467_1
 0002:000255A0      __sys_nerr
 0002:00025958      @D1562_1
 0002:000259D0      @D1642_0
 0002:000259D0      __chartype
 0002:00025BD4      __lower
 0002:00025BD4      @D1648_0
 0002:00025CD4      __upper
 0002:00025CD4      @D1652_0
 0002:00025DD4      @D1671_0
 0002:00025DD4      _CMonetary
 0002:00025E08      _CNumeric
 0002:00025E20      _CTimeDate
 0002:00025EE4      _CLOCALE
 0002:00025F10      ___locale
 0002:00026034      @D1797_1
 0002:00026044      @D1803_1
 0002:00026104      @D1858_1
 0002:00026104      __realcvtptr
 0002:00026108      __nextrealptr
 0002:0002610C      __scantodptr
 0002:00026110      __scanrsltptr
 0002:0002616C      __realcvtwptr
 0002:0002616C      @D1860_1
 0002:00026170      __nextrealwptr
 0002:00026174      __scanwtodptr
 0002:00026178      __scanwrsltptr
 0002:000261D4      @D1862_0
 0002:000261D4      __default87
 0002:000261D8      @D1868_1
 0002:000261E4      @D1876_1
 0002:000261F8      @D1878_1
 0002:00026210      __huge_flt
 0002:00026210      @D1916_0
 0002:00026214      __huge_dble
 0002:0002621C      __huge_ldble
 0002:00026226      __max_flt
 0002:0002622A      __max_dble
 0002:00026232      __max_ldble
 0002:0002623C      __indefinite
 0002:00026240      __tiny_ldble
 0002:0002624C      ___ieee_64_p_inf
 0002:00026254      ___ieee_64_n_inf
 0002:0002625C      ___ieee_64_p_nanq
 0002:00026264      ___ieee_64_n_nanq
 0002:0002626C      ___ieee_64_p_nans
 0002:00026274      ___ieee_64_n_nans
 0002:0002627C      ___ieee_64_p_zero
 0002:00026284      ___ieee_64_n_zero
 0002:0002628C      @D1926_0
 0002:0002628C      __turboFloat
 0002:00026290      __floatconvert
 0002:00026294      @D1940_1
 0002:000262A0      @D1964_1
 0002:000262A0      __pmatherr
 0002:000262A4      __pmatherrl
 0002:000262A8      __mathwhy
 0002:000262A8      @D1968_0
 0002:000262EC      @D1978_1
 0002:00026308      @D1990_1
 0002:00026310      @D1992_1
 0002:00026324      @D1994_1
 0002:0002634C      @D2001_1
 0002:00026374      @D2003_1
 0002:0002639C      @D2013_1
 0002:000263AC      @D2061_1
 0002:000263AC      __kalpha
 0002:000263AE      __kpunct
 0002:000263F4      @D2197_1
 0002:00026418      @D2213_1
 0002:0002643C      _errno
 0002:0002643C      @D2215_1
 0002:00026440      __messagefunc
 0002:00026440      @D2217_1
 0002:00026444      __messagefile
 0002:00026450      @D2225_1
 0002:00026478      @D2244_1
 0002:00026498      @D2246_0
 0002:00026498      ___pCallAtExitProcs
 0002:0002649C      @D2282_1
 0002:0002649C      __exitbuf
 0002:000264A0      __exitfopen
 0002:000264A4      __exitopen
 0002:000264A8      @D2302_0
 0002:000264A8      __setargv_ptr
 0002:000264AC      __exitargv_ptr
 0002:000264B0      __wsetargv_ptr
 0002:000264B0      @D2304_0
 0002:000264B4      __wexitargv_ptr
 0002:000264B8      __setargv__
 0002:000264B8      @D2306_1
 0002:0002650C      __cmdline_escapes
 0002:0002650C      @D2308_1
 0002:00026534      @D2310_1
 0002:00026558      __argv_expand_ptr
 0002:00026558      @D2363_0
 0002:0002655C      @D2365_0
 0002:0002655C      __wargv_expand_ptr
 0002:00026560      __argv0
 0002:00026560      @D2367_1
 0002:00026580      @D2381_1
 0002:00026580      __setenvp__
 0002:000265D4      @D2385_1
 0002:00026634      @D2403_0
 0002:00026634      __isWindows
 0002:00026638      @D2404_1
 0002:0002663C      @D2434_0
 0002:0002663C      __SWeekday
 0002:00026658      __LWeekday
 0002:00026674      __SMonth
 0002:000266A4      __LMonth
 0002:000266D4      __AmPm
 0002:000266DC      __Days
 0002:000266E8      __YDays
 0002:00026800      __timezone
 0002:00026800      @D2440_1
 0002:00026804      __daylight
 0002:00026808      __tzname
 0002:00026808      @D2442_1
 0002:00026818      @D2448_1
 0002:0002681C      ___debuggerDisableTerminateCallback
 0002:0002681C      @D2498_1
 0002:000270A8      _IID_IPicture
 0003:00000000      @B135_2
 0003:00000000      _hb_iCmdShow
 0003:00000004      @B147_2
 0003:0000000C      @B149_2
 0003:0000000C      _hb_stack
 0003:00000054      @B155_2
 0003:0000006C      @B157_2
 0003:00000270      @B163_2
 0003:000003FC      _hb_vm_aiExtraParams
 0003:000003FC      @B165_2
 0003:0000043C      _hb_vm_apExtraParamsSymbol
 0003:0000047C      _hb_vm_aiExtraElements
 0003:000004BC      _hb_vm_iExtraIndex
 0003:000004C0      _hb_ulOpcodesCalls
 0003:0000075C      _hb_ulOpcodesTime
 0003:00000A28      _hb_vm_aWithObject
 0003:00000BA8      _hb_vm_wWithObjectCounter
 0003:00000BAC      _hb_vm_aEnumCollection
 0003:00000D2C      _hb_vm_apEnumVar
 0003:00000D6C      _hb_vm_awEnumIndex
 0003:00000DAC      _hb_vm_pSequence
 0003:00000DB0      _hb_vm_pFinally
 0003:00000DD4      @B183_2
 0003:00000DD4      _argv
 0003:00000ED4      @B217_2
 0003:00000FD4      @B223_2
 0003:00000FEC      @B253_2
 0003:000011F4      @B271_2
 0003:000011F4      _hb_gt_gobjects
 0003:000011F8      _hb_gt_gobjects_end
 0003:00001218      _hb_gtGForeground
 0003:00001220      _hb_gtGBackground
 0003:00001228      @B311_2
 0003:0000123C      @B317_2
 0003:0000133C      _hb_set
 0003:0000133C      @B391_2
 0003:000016A4      _s_PrintFileName
 0003:000017A4      _s_PrinterName
 0003:000018A4      _s_isDefaultPrinterDevice
 0003:000018A8      @B401_1
 0003:000018AC      @B465_2
 0003:000018B0      @B505_2
 0003:000018B4      @B619_2
 0003:00001A30      @B623_2
 0003:00001BAC      @B625_2
 0003:00001D28      @B651_2
 0003:00001D68      @B659_2
 0003:00009E2C      _yyleng
 0003:00009E38      _yyin
 0003:0000E444      @B785_2
 0003:0000E5C0      @B793_1
 0003:0000E5C0      __pidtab
 0003:0000F0B0      __handles
 0003:0000FBA0      @B795_2
 0003:0000FD1C      @B803_2
 0003:000104F0      _last_gobject
 0003:000104F4      @B851_2
 0003:000104F4      __bormm_pfn_FreeMem
 0003:000104F8      __bormm_pfn_GetMem
 0003:000104FC      __bormm_pfn_ReallocMem
 0003:00010500      __bormm_pfn_HeapAddRef
 0003:00010504      __bormm_pfn_HeapRelease
 0003:0001050C      @B1114_1
 0003:00010510      @B1164_2
 0003:00010920      @B1168_2
 0003:00010920      __DestructorCountPtr
 0003:00010928      __HandlerPtr
 0003:00010928      @B1174_2
 0003:0001092C      __UserHandlerPtr
 0003:00010930      __doserrno
 0003:00010930      @B1435_2
 0003:00010934      @B1441_1
 0003:00010938      __tmpnum
 0003:00010938      @B1459_2
 0003:00010948      __mbctype
 0003:00010948      @B2061_2
 0003:00010A4C      __mbcsCodePage
 0003:00010A50      @B2197_2
 0003:00010B50      @B2213_2
 0003:00010B6C      @B2225_2
 0003:00010B6C      __ostype
 0003:00010B70      @B2229_1
 0003:00010B78      @B2306_2
 0003:00010B78      __argv
 0003:00010B84      @B2308_2
 0003:00010B88      @B2310_2
 0003:00010B8C      __environ
 0003:00010B8C      @B2381_2
 0003:00010B94      __envsize
 0003:00010B98      __env_lock
 0003:00010B9C      __C0argc
 0003:00010B9C      @B2403_1
 0003:00010BA0      __C0argv
 0003:00010BA4      __C0environ
 0003:00010BA8      __oscmd
 0003:00010BAC      __osenv
 0003:00010BB0      __argc
 0003:00010BB4      __dll_table
 0003:00010BBC      __ExcRegPtr
 0003:00010BC0      __wosenv
 0003:00010BC4      __woscmd
 0003:00010BC8      __wC0argv
 0003:00010BCC      __wC0environ
 0003:00010BD0      __exe_table
 0003:00010BD8      __stkbase
 0003:00010BDC      @B2428_1
 0003:00010C00      @B2442_2
 0003:00010C08      @B2498_2
 0003:00010C0C      ___pCPPdebugHook
 0004:00000000      @T1168_3
 0004:00000000      ___xxInfo
